Component: ARM Compiler 5.06 update 5 (build 528) Tool: armlink [4d35e2]

==============================================================================

Section Cross References

    startup_stm32f407xx.o(STACK) refers (Special) to heapauxi.o(.text) for __use_two_region_memory
    startup_stm32f407xx.o(HEAP) refers (Special) to heapauxi.o(.text) for __use_two_region_memory
    startup_stm32f407xx.o(RESET) refers (Special) to heapauxi.o(.text) for __use_two_region_memory
    startup_stm32f407xx.o(RESET) refers to startup_stm32f407xx.o(STACK) for __initial_sp
    startup_stm32f407xx.o(RESET) refers to startup_stm32f407xx.o(.text) for Reset_Handler
    startup_stm32f407xx.o(RESET) refers to system.o(i.SysTick_Handler) for SysTick_Handler
    startup_stm32f407xx.o(RESET) refers to exti.o(i.EXTI0_IRQHandler) for EXTI0_IRQHandler
    startup_stm32f407xx.o(RESET) refers to exti.o(i.EXTI1_IRQHandler) for EXTI1_IRQHandler
    startup_stm32f407xx.o(RESET) refers to exti.o(i.EXTI2_IRQHandler) for EXTI2_IRQHandler
    startup_stm32f407xx.o(RESET) refers to exti.o(i.EXTI3_IRQHandler) for EXTI3_IRQHandler
    startup_stm32f407xx.o(RESET) refers to exti.o(i.EXTI4_IRQHandler) for EXTI4_IRQHandler
    startup_stm32f407xx.o(RESET) refers to dma_stm32f4xx.o(i.DMA1_Stream0_IRQHandler) for DMA1_Stream0_IRQHandler
    startup_stm32f407xx.o(RESET) refers to dma_stm32f4xx.o(i.DMA1_Stream1_IRQHandler) for DMA1_Stream1_IRQHandler
    startup_stm32f407xx.o(RESET) refers to dma_stm32f4xx.o(i.DMA1_Stream2_IRQHandler) for DMA1_Stream2_IRQHandler
    startup_stm32f407xx.o(RESET) refers to dma_stm32f4xx.o(i.DMA1_Stream3_IRQHandler) for DMA1_Stream3_IRQHandler
    startup_stm32f407xx.o(RESET) refers to dma_stm32f4xx.o(i.DMA1_Stream4_IRQHandler) for DMA1_Stream4_IRQHandler
    startup_stm32f407xx.o(RESET) refers to dma_stm32f4xx.o(i.DMA1_Stream5_IRQHandler) for DMA1_Stream5_IRQHandler
    startup_stm32f407xx.o(RESET) refers to dma_stm32f4xx.o(i.DMA1_Stream6_IRQHandler) for DMA1_Stream6_IRQHandler
    startup_stm32f407xx.o(RESET) refers to exti.o(i.EXTI9_5_IRQHandler) for EXTI9_5_IRQHandler
    startup_stm32f407xx.o(RESET) refers to timer.o(i.TIM1_CC_IRQHandler) for TIM1_CC_IRQHandler
    startup_stm32f407xx.o(RESET) refers to timer.o(i.TIM2_IRQHandler) for TIM2_IRQHandler
    startup_stm32f407xx.o(RESET) refers to timer.o(i.TIM3_IRQHandler) for TIM3_IRQHandler
    startup_stm32f407xx.o(RESET) refers to timer.o(i.TIM4_IRQHandler) for TIM4_IRQHandler
    startup_stm32f407xx.o(RESET) refers to serial_uart_stm32f4xx.o(i.USART1_IRQHandler) for USART1_IRQHandler
    startup_stm32f407xx.o(RESET) refers to serial_uart_stm32f4xx.o(i.USART3_IRQHandler) for USART3_IRQHandler
    startup_stm32f407xx.o(RESET) refers to exti.o(i.EXTI15_10_IRQHandler) for EXTI15_10_IRQHandler
    startup_stm32f407xx.o(RESET) refers to dma_stm32f4xx.o(i.DMA1_Stream7_IRQHandler) for DMA1_Stream7_IRQHandler
    startup_stm32f407xx.o(RESET) refers to timer.o(i.TIM5_IRQHandler) for TIM5_IRQHandler
    startup_stm32f407xx.o(RESET) refers to dma_stm32f4xx.o(i.DMA2_Stream0_IRQHandler) for DMA2_Stream0_IRQHandler
    startup_stm32f407xx.o(RESET) refers to dma_stm32f4xx.o(i.DMA2_Stream1_IRQHandler) for DMA2_Stream1_IRQHandler
    startup_stm32f407xx.o(RESET) refers to dma_stm32f4xx.o(i.DMA2_Stream2_IRQHandler) for DMA2_Stream2_IRQHandler
    startup_stm32f407xx.o(RESET) refers to dma_stm32f4xx.o(i.DMA2_Stream3_IRQHandler) for DMA2_Stream3_IRQHandler
    startup_stm32f407xx.o(RESET) refers to dma_stm32f4xx.o(i.DMA2_Stream4_IRQHandler) for DMA2_Stream4_IRQHandler
    startup_stm32f407xx.o(RESET) refers to dma_stm32f4xx.o(i.DMA2_Stream5_IRQHandler) for DMA2_Stream5_IRQHandler
    startup_stm32f407xx.o(RESET) refers to dma_stm32f4xx.o(i.DMA2_Stream6_IRQHandler) for DMA2_Stream6_IRQHandler
    startup_stm32f407xx.o(RESET) refers to dma_stm32f4xx.o(i.DMA2_Stream7_IRQHandler) for DMA2_Stream7_IRQHandler
    startup_stm32f407xx.o(RESET) refers to serial_uart_stm32f4xx.o(i.USART6_IRQHandler) for USART6_IRQHandler
    startup_stm32f407xx.o(.text) refers (Special) to heapauxi.o(.text) for __use_two_region_memory
    startup_stm32f407xx.o(.text) refers to system_stm32f4xx.o(i.SystemInit) for SystemInit
    startup_stm32f407xx.o(.text) refers to __main.o(!!!main) for __main
    startup_stm32f407xx.o(.text) refers to startup_stm32f407xx.o(HEAP) for Heap_Mem
    startup_stm32f407xx.o(.text) refers to startup_stm32f407xx.o(STACK) for Stack_Mem
    stm32f4xx_flash.o(i.FLASH_EraseAllBank1Sectors) refers to stm32f4xx_flash.o(i.FLASH_WaitForLastOperation) for FLASH_WaitForLastOperation
    stm32f4xx_flash.o(i.FLASH_EraseAllBank2Sectors) refers to stm32f4xx_flash.o(i.FLASH_WaitForLastOperation) for FLASH_WaitForLastOperation
    stm32f4xx_flash.o(i.FLASH_EraseAllSectors) refers to stm32f4xx_flash.o(i.FLASH_WaitForLastOperation) for FLASH_WaitForLastOperation
    stm32f4xx_flash.o(i.FLASH_EraseSector) refers to stm32f4xx_flash.o(i.FLASH_WaitForLastOperation) for FLASH_WaitForLastOperation
    stm32f4xx_flash.o(i.FLASH_OB_Launch) refers to stm32f4xx_flash.o(i.FLASH_WaitForLastOperation) for FLASH_WaitForLastOperation
    stm32f4xx_flash.o(i.FLASH_OB_PCROP1Config) refers to stm32f4xx_flash.o(i.FLASH_WaitForLastOperation) for FLASH_WaitForLastOperation
    stm32f4xx_flash.o(i.FLASH_OB_PCROPConfig) refers to stm32f4xx_flash.o(i.FLASH_WaitForLastOperation) for FLASH_WaitForLastOperation
    stm32f4xx_flash.o(i.FLASH_OB_RDPConfig) refers to stm32f4xx_flash.o(i.FLASH_WaitForLastOperation) for FLASH_WaitForLastOperation
    stm32f4xx_flash.o(i.FLASH_OB_UserConfig) refers to stm32f4xx_flash.o(i.FLASH_WaitForLastOperation) for FLASH_WaitForLastOperation
    stm32f4xx_flash.o(i.FLASH_OB_WRP1Config) refers to stm32f4xx_flash.o(i.FLASH_WaitForLastOperation) for FLASH_WaitForLastOperation
    stm32f4xx_flash.o(i.FLASH_OB_WRPConfig) refers to stm32f4xx_flash.o(i.FLASH_WaitForLastOperation) for FLASH_WaitForLastOperation
    stm32f4xx_flash.o(i.FLASH_ProgramByte) refers to stm32f4xx_flash.o(i.FLASH_WaitForLastOperation) for FLASH_WaitForLastOperation
    stm32f4xx_flash.o(i.FLASH_ProgramDoubleWord) refers to stm32f4xx_flash.o(i.FLASH_WaitForLastOperation) for FLASH_WaitForLastOperation
    stm32f4xx_flash.o(i.FLASH_ProgramHalfWord) refers to stm32f4xx_flash.o(i.FLASH_WaitForLastOperation) for FLASH_WaitForLastOperation
    stm32f4xx_flash.o(i.FLASH_ProgramWord) refers to stm32f4xx_flash.o(i.FLASH_WaitForLastOperation) for FLASH_WaitForLastOperation
    stm32f4xx_flash.o(i.FLASH_WaitForLastOperation) refers to stm32f4xx_flash.o(i.FLASH_GetStatus) for FLASH_GetStatus
    stm32f4xx_gpio.o(i.GPIO_DeInit) refers to stm32f4xx_rcc.o(i.RCC_AHB1PeriphResetCmd) for RCC_AHB1PeriphResetCmd
    stm32f4xx_pwr.o(i.PWR_DeInit) refers to stm32f4xx_rcc.o(i.RCC_APB1PeriphResetCmd) for RCC_APB1PeriphResetCmd
    stm32f4xx_rcc.o(i.RCC_GetClocksFreq) refers to stm32f4xx_rcc.o(.data) for .data
    stm32f4xx_rcc.o(i.RCC_WaitForHSEStartUp) refers to stm32f4xx_rcc.o(i.RCC_GetFlagStatus) for RCC_GetFlagStatus
    stm32f4xx_spi.o(i.SPI_I2S_DeInit) refers to stm32f4xx_rcc.o(i.RCC_APB1PeriphResetCmd) for RCC_APB1PeriphResetCmd
    stm32f4xx_spi.o(i.SPI_I2S_DeInit) refers to stm32f4xx_rcc.o(i.RCC_APB2PeriphResetCmd) for RCC_APB2PeriphResetCmd
    stm32f4xx_syscfg.o(i.SYSCFG_DeInit) refers to stm32f4xx_rcc.o(i.RCC_APB2PeriphResetCmd) for RCC_APB2PeriphResetCmd
    stm32f4xx_tim.o(i.TIM_DeInit) refers to stm32f4xx_rcc.o(i.RCC_APB2PeriphResetCmd) for RCC_APB2PeriphResetCmd
    stm32f4xx_tim.o(i.TIM_DeInit) refers to stm32f4xx_rcc.o(i.RCC_APB1PeriphResetCmd) for RCC_APB1PeriphResetCmd
    stm32f4xx_tim.o(i.TIM_ETRClockMode1Config) refers to stm32f4xx_tim.o(i.TIM_ETRConfig) for TIM_ETRConfig
    stm32f4xx_tim.o(i.TIM_ETRClockMode2Config) refers to stm32f4xx_tim.o(i.TIM_ETRConfig) for TIM_ETRConfig
    stm32f4xx_tim.o(i.TIM_ICInit) refers to stm32f4xx_tim.o(i.TIM_SetIC4Prescaler) for TIM_SetIC4Prescaler
    stm32f4xx_tim.o(i.TIM_ICInit) refers to stm32f4xx_tim.o(i.TI1_Config) for TI1_Config
    stm32f4xx_tim.o(i.TIM_ICInit) refers to stm32f4xx_tim.o(i.TIM_SetIC1Prescaler) for TIM_SetIC1Prescaler
    stm32f4xx_tim.o(i.TIM_ICInit) refers to stm32f4xx_tim.o(i.TI2_Config) for TI2_Config
    stm32f4xx_tim.o(i.TIM_ICInit) refers to stm32f4xx_tim.o(i.TIM_SetIC2Prescaler) for TIM_SetIC2Prescaler
    stm32f4xx_tim.o(i.TIM_ICInit) refers to stm32f4xx_tim.o(i.TIM_SetIC3Prescaler) for TIM_SetIC3Prescaler
    stm32f4xx_tim.o(i.TIM_ITRxExternalClockConfig) refers to stm32f4xx_tim.o(i.TIM_SelectInputTrigger) for TIM_SelectInputTrigger
    stm32f4xx_tim.o(i.TIM_PWMIConfig) refers to stm32f4xx_tim.o(i.TI2_Config) for TI2_Config
    stm32f4xx_tim.o(i.TIM_PWMIConfig) refers to stm32f4xx_tim.o(i.TIM_SetIC2Prescaler) for TIM_SetIC2Prescaler
    stm32f4xx_tim.o(i.TIM_PWMIConfig) refers to stm32f4xx_tim.o(i.TI1_Config) for TI1_Config
    stm32f4xx_tim.o(i.TIM_PWMIConfig) refers to stm32f4xx_tim.o(i.TIM_SetIC1Prescaler) for TIM_SetIC1Prescaler
    stm32f4xx_tim.o(i.TIM_TIxExternalClockConfig) refers to stm32f4xx_tim.o(i.TI1_Config) for TI1_Config
    stm32f4xx_tim.o(i.TIM_TIxExternalClockConfig) refers to stm32f4xx_tim.o(i.TIM_SelectInputTrigger) for TIM_SelectInputTrigger
    stm32f4xx_tim.o(i.TIM_TIxExternalClockConfig) refers to stm32f4xx_tim.o(i.TI2_Config) for TI2_Config
    stm32f4xx_usart.o(i.USART_DeInit) refers to stm32f4xx_rcc.o(i.RCC_APB2PeriphResetCmd) for RCC_APB2PeriphResetCmd
    stm32f4xx_usart.o(i.USART_DeInit) refers to stm32f4xx_rcc.o(i.RCC_APB1PeriphResetCmd) for RCC_APB1PeriphResetCmd
    stm32f4xx_usart.o(i.USART_Init) refers to stm32f4xx_rcc.o(i.RCC_GetClocksFreq) for RCC_GetClocksFreq
    main.o(i.EnableGPIOClk) refers to stm32f4xx_rcc.o(i.RCC_AHB1PeriphClockCmd) for RCC_AHB1PeriphClockCmd
    main.o(i.EnableGPIOClk) refers to stm32f4xx_rcc.o(i.RCC_AHB2PeriphClockCmd) for RCC_AHB2PeriphClockCmd
    main.o(i.EnableGPIOClk) refers to stm32f4xx_rcc.o(i.RCC_APB1PeriphClockCmd) for RCC_APB1PeriphClockCmd
    main.o(i.EnableGPIOClk) refers to stm32f4xx_rcc.o(i.RCC_APB2PeriphClockCmd) for RCC_APB2PeriphClockCmd
    main.o(i.EnableGPIOClk) refers to stm32f4xx_gpio.o(i.GPIO_StructInit) for GPIO_StructInit
    main.o(i.EnableGPIOClk) refers to stm32f4xx_gpio.o(i.GPIO_Init) for GPIO_Init
    main.o(i.fputc) refers to rxserial3test.o(i.rxSerial3TestWrite) for rxSerial3TestWrite
    main.o(i.main) refers to main.o(i.systemInit) for systemInit
    main.o(i.main) refers to io.o(i.IOGlobalInit) for IOGlobalInit
    main.o(i.main) refers to config_eeprom.o(i.initEEPROM) for initEEPROM
    main.o(i.main) refers to config.o(i.checkEEPROMContainsValidData) for checkEEPROMContainsValidData
    main.o(i.main) refers to serial.o(i.serialInit) for serialInit
    main.o(i.main) refers to rxserial3test.o(i.rxSerial3TestInit) for rxSerial3TestInit
    main.o(i.main) refers to bluetoothserial6.o(i.bluetoothSerial6Init) for bluetoothSerial6Init
    main.o(i.main) refers to config_eeprom.o(i.readEEPROM) for readEEPROM
    main.o(i.main) refers to feature.o(i.latchActiveFeatures) for latchActiveFeatures
    main.o(i.main) refers to led.o(i.LedInit) for LedInit
    main.o(i.main) refers to exti.o(i.EXTIInit) for EXTIInit
    main.o(i.main) refers to button.o(i.modeSwitchBtnPollInit) for modeSwitchBtnPollInit
    main.o(i.main) refers to system.o(i.delay) for delay
    main.o(i.main) refers to timer.o(i.timerInit) for timerInit
    main.o(i.main) refers to pwm_output.o(i.dcBrushedMotorInit) for dcBrushedMotorInit
    main.o(i.main) refers to rx_pwm.o(i.pwmEncoderInit) for pwmEncoderInit
    main.o(i.main) refers to bus_spi.o(i.spiInit) for spiInit
    main.o(i.main) refers to sound_beeper.o(i.beeperInit) for beeperInit
    main.o(i.main) refers to sound_beeper.o(i.systemBeep) for systemBeep
    main.o(i.main) refers to oled.o(i.oledInit) for oledInit
    main.o(i.main) refers to imu.o(i.imuInit) for imuInit
    main.o(i.main) refers to gyro.o(i.gyroSetCalibrationCycles) for gyroSetCalibrationCycles
    main.o(i.main) refers to acceleration.o(i.accSetCalibrationCycles) for accSetCalibrationCycles
    main.o(i.main) refers to fc_tasks.o(i.fcTasksInit) for fcTasksInit
    main.o(i.main) refers to scheduler.o(i.scheduler) for scheduler
    main.o(i.main) refers to config.o(.bss) for masterConfig
    main.o(i.main) refers to main.o(.data) for .data
    main.o(i.main_process) refers to scheduler.o(i.scheduler) for scheduler
    main.o(i.systemInit) refers to system_stm32f4xx.o(i.SetSysClock) for SetSysClock
    main.o(i.systemInit) refers to misc.o(i.NVIC_PriorityGroupConfig) for NVIC_PriorityGroupConfig
    main.o(i.systemInit) refers to stm32f4xx_rcc.o(i.RCC_ClearFlag) for RCC_ClearFlag
    main.o(i.systemInit) refers to main.o(i.EnableGPIOClk) for EnableGPIOClk
    main.o(i.systemInit) refers to system.o(i.SysTick_Init) for SysTick_Init
    main.o(i.systemInit) refers to system_stm32f4xx.o(.data) for SystemCoreClock
    system_stm32f4xx.o(i.SystemCoreClockUpdate) refers to system_stm32f4xx.o(.data) for .data
    system_stm32f4xx.o(i.SystemInit) refers to system_stm32f4xx.o(i.SetSysClock) for SetSysClock
    system.o(i.SysTick_Handler) refers to system.o(.data) for .data
    system.o(i.SysTick_Init) refers to stm32f4xx_rcc.o(i.RCC_GetClocksFreq) for RCC_GetClocksFreq
    system.o(i.SysTick_Init) refers to system.o(.bss) for .bss
    system.o(i.SysTick_Init) refers to system.o(.data) for .data
    system.o(i.delay) refers to system.o(i.delayMicroseconds) for delayMicroseconds
    system.o(i.delayMicroseconds) refers to system.o(i.micros) for micros
    system.o(i.micros) refers to system.o(i.microsISR) for microsISR
    system.o(i.micros) refers to system.o(.data) for .data
    system.o(i.microsISR) refers to system.o(.data) for .data
    system.o(i.millis) refers to system.o(.data) for .data
    accgyro_mpu.o(i.mpuDetect) refers to system.o(i.delay) for delay
    accgyro_mpu.o(i.mpuDetect) refers to accgyro_spi_mpu9250.o(i.mpu9250SpiDetect) for mpu9250SpiDetect
    accgyro_mpu.o(i.mpuDetect) refers to accgyro_spi_mpu9250.o(i.mpu9250ReadRegister) for mpu9250ReadRegister
    accgyro_mpu.o(i.mpuDetect) refers to accgyro_spi_mpu9250.o(i.mpu9250SlowReadRegister) for mpu9250SlowReadRegister
    accgyro_mpu.o(i.mpuDetect) refers to accgyro_spi_mpu9250.o(i.mpu9250WriteRegister) for mpu9250WriteRegister
    accgyro_mpu.o(i.mpuDetect) refers to accgyro_spi_mpu9250.o(i.verifyMPU9250WriteRegister) for verifyMPU9250WriteRegister
    accgyro_mpu.o(i.mpuDetect) refers to accgyro_spi_mpu9250.o(i.mpu9250ResetGyro) for mpu9250ResetGyro
    accgyro_mpu.o(i.mpuGyroInit) refers to io.o(i.IOGetByTag) for IOGetByTag
    accgyro_mpu.o(i.mpuGyroInit) refers to io.o(i.IOInit) for IOInit
    accgyro_mpu.o(i.mpuGyroInit) refers to io.o(i.IOConfigGPIO) for IOConfigGPIO
    accgyro_mpu.o(i.mpuGyroInit) refers to exti.o(i.EXTIHandlerInit) for EXTIHandlerInit
    accgyro_mpu.o(i.mpuGyroInit) refers to exti.o(i.EXTIConfig) for EXTIConfig
    accgyro_mpu.o(i.mpuGyroInit) refers to exti.o(i.EXTIEnable) for EXTIEnable
    accgyro_mpu.o(i.mpuGyroInit) refers to accgyro_mpu.o(i.mpuIntExtiHandler) for mpuIntExtiHandler
    accgyro_spi_mpu9250.o(i.mpu9250AccAndGyroInit) refers to bus_spi.o(i.spiSetDivisor) for spiSetDivisor
    accgyro_spi_mpu9250.o(i.mpu9250AccAndGyroInit) refers to accgyro_spi_mpu9250.o(i.mpu9250WriteRegister) for mpu9250WriteRegister
    accgyro_spi_mpu9250.o(i.mpu9250AccAndGyroInit) refers to system.o(i.delay) for delay
    accgyro_spi_mpu9250.o(i.mpu9250AccAndGyroInit) refers to accgyro_spi_mpu9250.o(i.verifyMPU9250WriteRegister) for verifyMPU9250WriteRegister
    accgyro_spi_mpu9250.o(i.mpu9250AccAndGyroInit) refers to gyro_sync.o(i.gyroMPU6xxxGetDividerDrops) for gyroMPU6xxxGetDividerDrops
    accgyro_spi_mpu9250.o(i.mpu9250AccAndGyroInit) refers to accgyro_spi_mpu9250.o(.data) for .data
    accgyro_spi_mpu9250.o(i.mpu9250ReadRegister) refers to io.o(i.IOLo) for IOLo
    accgyro_spi_mpu9250.o(i.mpu9250ReadRegister) refers to bus_spi.o(i.spiTransferByte) for spiTransferByte
    accgyro_spi_mpu9250.o(i.mpu9250ReadRegister) refers to bus_spi.o(i.spiTransfer) for spiTransfer
    accgyro_spi_mpu9250.o(i.mpu9250ReadRegister) refers to io.o(i.IOHi) for IOHi
    accgyro_spi_mpu9250.o(i.mpu9250ReadRegister) refers to accgyro_spi_mpu9250.o(.data) for .data
    accgyro_spi_mpu9250.o(i.mpu9250ResetGyro) refers to accgyro_spi_mpu9250.o(i.mpu9250WriteRegister) for mpu9250WriteRegister
    accgyro_spi_mpu9250.o(i.mpu9250ResetGyro) refers to system.o(i.delay) for delay
    accgyro_spi_mpu9250.o(i.mpu9250SlowReadRegister) refers to io.o(i.IOLo) for IOLo
    accgyro_spi_mpu9250.o(i.mpu9250SlowReadRegister) refers to system.o(i.delayMicroseconds) for delayMicroseconds
    accgyro_spi_mpu9250.o(i.mpu9250SlowReadRegister) refers to bus_spi.o(i.spiTransferByte) for spiTransferByte
    accgyro_spi_mpu9250.o(i.mpu9250SlowReadRegister) refers to bus_spi.o(i.spiTransfer) for spiTransfer
    accgyro_spi_mpu9250.o(i.mpu9250SlowReadRegister) refers to io.o(i.IOHi) for IOHi
    accgyro_spi_mpu9250.o(i.mpu9250SlowReadRegister) refers to accgyro_spi_mpu9250.o(.data) for .data
    accgyro_spi_mpu9250.o(i.mpu9250SpiAccDetect) refers to accgyro_spi_mpu9250.o(.data) for .data
    accgyro_spi_mpu9250.o(i.mpu9250SpiAccDetect) refers to accgyro_spi_mpu9250.o(i.mpu9250SpiAccInit) for mpu9250SpiAccInit
    accgyro_spi_mpu9250.o(i.mpu9250SpiAccDetect) refers to accgyro_mpu.o(i.mpuAccRead) for mpuAccRead
    accgyro_spi_mpu9250.o(i.mpu9250SpiDetect) refers to io.o(i.IOGetByTag) for IOGetByTag
    accgyro_spi_mpu9250.o(i.mpu9250SpiDetect) refers to io.o(i.IOInit) for IOInit
    accgyro_spi_mpu9250.o(i.mpu9250SpiDetect) refers to io.o(i.IOConfigGPIO) for IOConfigGPIO
    accgyro_spi_mpu9250.o(i.mpu9250SpiDetect) refers to bus_spi.o(i.spiSetDivisor) for spiSetDivisor
    accgyro_spi_mpu9250.o(i.mpu9250SpiDetect) refers to accgyro_spi_mpu9250.o(i.mpu9250WriteRegister) for mpu9250WriteRegister
    accgyro_spi_mpu9250.o(i.mpu9250SpiDetect) refers to system.o(i.delay) for delay
    accgyro_spi_mpu9250.o(i.mpu9250SpiDetect) refers to accgyro_spi_mpu9250.o(i.mpu9250ReadRegister) for mpu9250ReadRegister
    accgyro_spi_mpu9250.o(i.mpu9250SpiDetect) refers to accgyro_spi_mpu9250.o(.data) for .data
    accgyro_spi_mpu9250.o(i.mpu9250SpiGyroDetect) refers to accgyro_spi_mpu9250.o(i.mpu9250SpiGyroInit) for mpu9250SpiGyroInit
    accgyro_spi_mpu9250.o(i.mpu9250SpiGyroDetect) refers to accgyro_mpu.o(i.mpuGyroRead) for mpuGyroRead
    accgyro_spi_mpu9250.o(i.mpu9250SpiGyroDetect) refers to accgyro_mpu.o(i.mpuTemperatureRead) for mpuTemperatureRead
    accgyro_spi_mpu9250.o(i.mpu9250SpiGyroDetect) refers to accgyro_mpu.o(i.mpuCheckDataReady) for mpuCheckDataReady
    accgyro_spi_mpu9250.o(i.mpu9250SpiGyroInit) refers to accgyro_mpu.o(i.mpuGyroInit) for mpuGyroInit
    accgyro_spi_mpu9250.o(i.mpu9250SpiGyroInit) refers to accgyro_spi_mpu9250.o(i.mpu9250AccAndGyroInit) for mpu9250AccAndGyroInit
    accgyro_spi_mpu9250.o(i.mpu9250SpiGyroInit) refers to bus_spi.o(i.spiResetErrorCounter) for spiResetErrorCounter
    accgyro_spi_mpu9250.o(i.mpu9250SpiGyroInit) refers to bus_spi.o(i.spiSetDivisor) for spiSetDivisor
    accgyro_spi_mpu9250.o(i.mpu9250SpiGyroInit) refers to accgyro_mpu.o(i.mpuGyroRead) for mpuGyroRead
    accgyro_spi_mpu9250.o(i.mpu9250SpiGyroInit) refers to bus_spi.o(i.spiGetErrorCounter) for spiGetErrorCounter
    accgyro_spi_mpu9250.o(i.mpu9250WriteRegister) refers to io.o(i.IOLo) for IOLo
    accgyro_spi_mpu9250.o(i.mpu9250WriteRegister) refers to system.o(i.delayMicroseconds) for delayMicroseconds
    accgyro_spi_mpu9250.o(i.mpu9250WriteRegister) refers to bus_spi.o(i.spiTransferByte) for spiTransferByte
    accgyro_spi_mpu9250.o(i.mpu9250WriteRegister) refers to io.o(i.IOHi) for IOHi
    accgyro_spi_mpu9250.o(i.mpu9250WriteRegister) refers to accgyro_spi_mpu9250.o(.data) for .data
    accgyro_spi_mpu9250.o(i.verifyMPU9250WriteRegister) refers to accgyro_spi_mpu9250.o(i.mpu9250WriteRegister) for mpu9250WriteRegister
    accgyro_spi_mpu9250.o(i.verifyMPU9250WriteRegister) refers to system.o(i.delayMicroseconds) for delayMicroseconds
    accgyro_spi_mpu9250.o(i.verifyMPU9250WriteRegister) refers to accgyro_spi_mpu9250.o(i.mpu9250SlowReadRegister) for mpu9250SlowReadRegister
    bus_spi.o(i.spiGetErrorCounter) refers to bus_spi.o(i.spiDeviceByInstance) for spiDeviceByInstance
    bus_spi.o(i.spiGetErrorCounter) refers to bus_spi.o(.data) for .data
    bus_spi.o(i.spiInit) refers to bus_spi.o(i.spiInitDevice) for spiInitDevice
    bus_spi.o(i.spiInitDevice) refers to _printf_percent.o(.ARM.Collect$$_printf_percent$$00000000) for _printf_percent
    bus_spi.o(i.spiInitDevice) refers to _printf_d.o(.ARM.Collect$$_printf_percent$$00000009) for _printf_d
    bus_spi.o(i.spiInitDevice) refers to _printf_s.o(.ARM.Collect$$_printf_percent$$00000014) for _printf_s
    bus_spi.o(i.spiInitDevice) refers to _printf_dec.o(.text) for _printf_int_dec
    bus_spi.o(i.spiInitDevice) refers to _printf_str.o(.text) for _printf_str
    bus_spi.o(i.spiInitDevice) refers to rcc.o(i.RCC_ClockCmd) for RCC_ClockCmd
    bus_spi.o(i.spiInitDevice) refers to rcc.o(i.RCC_ResetCmd) for RCC_ResetCmd
    bus_spi.o(i.spiInitDevice) refers to io.o(i.IOGetByTag) for IOGetByTag
    bus_spi.o(i.spiInitDevice) refers to io.o(i.IOInit) for IOInit
    bus_spi.o(i.spiInitDevice) refers to io.o(i.IOConfigGPIOAF) for IOConfigGPIOAF
    bus_spi.o(i.spiInitDevice) refers to noretval__2printf.o(.text) for __2printf
    bus_spi.o(i.spiInitDevice) refers to stm32f4xx_spi.o(i.SPI_I2S_DeInit) for SPI_I2S_DeInit
    bus_spi.o(i.spiInitDevice) refers to stm32f4xx_spi.o(i.SPI_Init) for SPI_Init
    bus_spi.o(i.spiInitDevice) refers to stm32f4xx_spi.o(i.SPI_Cmd) for SPI_Cmd
    bus_spi.o(i.spiInitDevice) refers to io.o(i.IOHi) for IOHi
    bus_spi.o(i.spiInitDevice) refers to bus_spi.o(.data) for .data
    bus_spi.o(i.spiInitDevice) refers to bus_spi.o(.constdata) for .constdata
    bus_spi.o(i.spiIsBusBusy) refers to stm32f4xx_spi.o(i.SPI_I2S_GetFlagStatus) for SPI_I2S_GetFlagStatus
    bus_spi.o(i.spiResetErrorCounter) refers to bus_spi.o(i.spiDeviceByInstance) for spiDeviceByInstance
    bus_spi.o(i.spiResetErrorCounter) refers to bus_spi.o(.data) for .data
    bus_spi.o(i.spiSetDivisor) refers to stm32f4xx_spi.o(i.SPI_Cmd) for SPI_Cmd
    bus_spi.o(i.spiTimeoutUserCallback) refers to bus_spi.o(i.spiDeviceByInstance) for spiDeviceByInstance
    bus_spi.o(i.spiTimeoutUserCallback) refers to bus_spi.o(.data) for .data
    bus_spi.o(i.spiTransfer) refers to _printf_percent.o(.ARM.Collect$$_printf_percent$$00000000) for _printf_percent
    bus_spi.o(i.spiTransfer) refers to _printf_d.o(.ARM.Collect$$_printf_percent$$00000009) for _printf_d
    bus_spi.o(i.spiTransfer) refers to _printf_s.o(.ARM.Collect$$_printf_percent$$00000014) for _printf_s
    bus_spi.o(i.spiTransfer) refers to _printf_dec.o(.text) for _printf_int_dec
    bus_spi.o(i.spiTransfer) refers to _printf_str.o(.text) for _printf_str
    bus_spi.o(i.spiTransfer) refers to stm32f4xx_spi.o(i.SPI_I2S_GetFlagStatus) for SPI_I2S_GetFlagStatus
    bus_spi.o(i.spiTransfer) refers to stm32f4xx_spi.o(i.SPI_I2S_SendData) for SPI_I2S_SendData
    bus_spi.o(i.spiTransfer) refers to noretval__2printf.o(.text) for __2printf
    bus_spi.o(i.spiTransfer) refers to bus_spi.o(i.spiTimeoutUserCallback) for spiTimeoutUserCallback
    bus_spi.o(i.spiTransfer) refers to stm32f4xx_spi.o(i.SPI_I2S_ReceiveData) for SPI_I2S_ReceiveData
    bus_spi.o(i.spiTransfer) refers to bus_spi.o(.constdata) for .constdata
    bus_spi.o(i.spiTransferByte) refers to stm32f4xx_spi.o(i.SPI_I2S_GetFlagStatus) for SPI_I2S_GetFlagStatus
    bus_spi.o(i.spiTransferByte) refers to stm32f4xx_spi.o(i.SPI_I2S_SendData) for SPI_I2S_SendData
    bus_spi.o(i.spiTransferByte) refers to bus_spi.o(i.spiTimeoutUserCallback) for spiTimeoutUserCallback
    bus_spi.o(i.spiTransferByte) refers to stm32f4xx_spi.o(i.SPI_I2S_ReceiveData) for SPI_I2S_ReceiveData
    button.o(i.btnIntExtiHandler) refers to button.o(.bss) for .bss
    button.o(i.buttonInit) refers to io.o(i.IOGetByTag) for IOGetByTag
    button.o(i.buttonInit) refers to io.o(i.IOInit) for IOInit
    button.o(i.buttonInit) refers to io.o(i.IOConfigGPIO) for IOConfigGPIO
    button.o(i.buttonInit) refers to exti.o(i.EXTIHandlerInit) for EXTIHandlerInit
    button.o(i.buttonInit) refers to exti.o(i.EXTIConfig) for EXTIConfig
    button.o(i.buttonInit) refers to exti.o(i.EXTIEnable) for EXTIEnable
    button.o(i.buttonInit) refers to button.o(.bss) for .bss
    button.o(i.buttonInit) refers to button.o(.constdata) for .constdata
    button.o(i.buttonInit) refers to button.o(i.btnIntExtiHandler) for btnIntExtiHandler
    button.o(i.modeSwitchBtnPollInit) refers to io.o(i.IOGetByTag) for IOGetByTag
    button.o(i.modeSwitchBtnPollInit) refers to io.o(i.IOInit) for IOInit
    button.o(i.modeSwitchBtnPollInit) refers to io.o(i.IOConfigGPIO) for IOConfigGPIO
    button.o(i.modeSwitchBtnPollInit) refers to button.o(.data) for .data
    button.o(i.userBtnPollInit) refers to io.o(i.IOGetByTag) for IOGetByTag
    button.o(i.userBtnPollInit) refers to io.o(i.IOInit) for IOInit
    button.o(i.userBtnPollInit) refers to io.o(i.IOConfigGPIO) for IOConfigGPIO
    button.o(i.userBtnPollInit) refers to button.o(.data) for .data
    button.o(i.userBtnPollOps) refers to io.o(i.IORead) for IORead
    button.o(i.userBtnPollOps) refers to led.o(i.LedSet) for LedSet
    button.o(i.userBtnPollOps) refers to button.o(.data) for .data
    dma_stm32f4xx.o(i.DMA1_Stream0_IRQHandler) refers to dma_stm32f4xx.o(.data) for .data
    dma_stm32f4xx.o(i.DMA1_Stream1_IRQHandler) refers to dma_stm32f4xx.o(.data) for .data
    dma_stm32f4xx.o(i.DMA1_Stream2_IRQHandler) refers to dma_stm32f4xx.o(.data) for .data
    dma_stm32f4xx.o(i.DMA1_Stream3_IRQHandler) refers to dma_stm32f4xx.o(.data) for .data
    dma_stm32f4xx.o(i.DMA1_Stream4_IRQHandler) refers to dma_stm32f4xx.o(.data) for .data
    dma_stm32f4xx.o(i.DMA1_Stream5_IRQHandler) refers to dma_stm32f4xx.o(.data) for .data
    dma_stm32f4xx.o(i.DMA1_Stream6_IRQHandler) refers to dma_stm32f4xx.o(.data) for .data
    dma_stm32f4xx.o(i.DMA1_Stream7_IRQHandler) refers to dma_stm32f4xx.o(.data) for .data
    dma_stm32f4xx.o(i.DMA2_Stream0_IRQHandler) refers to dma_stm32f4xx.o(.data) for .data
    dma_stm32f4xx.o(i.DMA2_Stream1_IRQHandler) refers to dma_stm32f4xx.o(.data) for .data
    dma_stm32f4xx.o(i.DMA2_Stream2_IRQHandler) refers to dma_stm32f4xx.o(.data) for .data
    dma_stm32f4xx.o(i.DMA2_Stream3_IRQHandler) refers to dma_stm32f4xx.o(.data) for .data
    dma_stm32f4xx.o(i.DMA2_Stream4_IRQHandler) refers to dma_stm32f4xx.o(.data) for .data
    dma_stm32f4xx.o(i.DMA2_Stream5_IRQHandler) refers to dma_stm32f4xx.o(.data) for .data
    dma_stm32f4xx.o(i.DMA2_Stream6_IRQHandler) refers to dma_stm32f4xx.o(.data) for .data
    dma_stm32f4xx.o(i.DMA2_Stream7_IRQHandler) refers to dma_stm32f4xx.o(.data) for .data
    dma_stm32f4xx.o(i.dmaGetIdentifier) refers to dma_stm32f4xx.o(.data) for .data
    dma_stm32f4xx.o(i.dmaInit) refers to stm32f4xx_rcc.o(i.RCC_AHB1PeriphClockCmd) for RCC_AHB1PeriphClockCmd
    dma_stm32f4xx.o(i.dmaInit) refers to dma_stm32f4xx.o(.data) for .data
    exti.o(i.EXTI0_IRQHandler) refers to exti.o(i.EXTI_IRQHandler) for EXTI_IRQHandler
    exti.o(i.EXTI15_10_IRQHandler) refers to exti.o(i.EXTI_IRQHandler) for EXTI_IRQHandler
    exti.o(i.EXTI1_IRQHandler) refers to exti.o(i.EXTI_IRQHandler) for EXTI_IRQHandler
    exti.o(i.EXTI2_IRQHandler) refers to exti.o(i.EXTI_IRQHandler) for EXTI_IRQHandler
    exti.o(i.EXTI3_IRQHandler) refers to exti.o(i.EXTI_IRQHandler) for EXTI_IRQHandler
    exti.o(i.EXTI4_IRQHandler) refers to exti.o(i.EXTI_IRQHandler) for EXTI_IRQHandler
    exti.o(i.EXTI9_5_IRQHandler) refers to exti.o(i.EXTI_IRQHandler) for EXTI_IRQHandler
    exti.o(i.EXTIConfig) refers to io.o(i.IO_GPIOPinIdx) for IO_GPIOPinIdx
    exti.o(i.EXTIConfig) refers to io.o(i.IO_EXTI_PinSource) for IO_EXTI_PinSource
    exti.o(i.EXTIConfig) refers to io.o(i.IO_EXTI_PortSourceGPIO) for IO_EXTI_PortSourceGPIO
    exti.o(i.EXTIConfig) refers to stm32f4xx_syscfg.o(i.SYSCFG_EXTILineConfig) for SYSCFG_EXTILineConfig
    exti.o(i.EXTIConfig) refers to io.o(i.IO_EXTI_Line) for IO_EXTI_Line
    exti.o(i.EXTIConfig) refers to stm32f4xx_exti.o(i.EXTI_ClearITPendingBit) for EXTI_ClearITPendingBit
    exti.o(i.EXTIConfig) refers to stm32f4xx_exti.o(i.EXTI_Init) for EXTI_Init
    exti.o(i.EXTIConfig) refers to misc.o(i.NVIC_Init) for NVIC_Init
    exti.o(i.EXTIConfig) refers to exti.o(.bss) for .bss
    exti.o(i.EXTIConfig) refers to exti.o(.constdata) for .constdata
    exti.o(i.EXTIConfig) refers to exti.o(.data) for .data
    exti.o(i.EXTIEnable) refers to io.o(i.IO_EXTI_Line) for IO_EXTI_Line
    exti.o(i.EXTIInit) refers to stm32f4xx_rcc.o(i.RCC_APB2PeriphClockCmd) for RCC_APB2PeriphClockCmd
    exti.o(i.EXTIInit) refers to rt_memclr_w.o(.text) for __aeabi_memclr4
    exti.o(i.EXTIInit) refers to aeabi_memset.o(.text) for __aeabi_memset
    exti.o(i.EXTIInit) refers to exti.o(.bss) for .bss
    exti.o(i.EXTIInit) refers to exti.o(.data) for .data
    exti.o(i.EXTIRelease) refers to exti.o(i.EXTIEnable) for EXTIEnable
    exti.o(i.EXTIRelease) refers to io.o(i.IO_GPIOPinIdx) for IO_GPIOPinIdx
    exti.o(i.EXTIRelease) refers to exti.o(.bss) for .bss
    exti.o(i.EXTI_IRQHandler) refers to exti.o(.bss) for .bss
    gps.o(i.gpsInit) refers to serial.o(i.findSerialPortConfig) for findSerialPortConfig
    gps.o(i.gpsInit) refers to serial.o(i.openSerialPort) for openSerialPort
    gps.o(i.gpsInit) refers to gps.o(.data) for .data
    gps.o(i.gpsPrint) refers to serial.o(i.serialPrint) for serialPrint
    gps.o(i.gpsPrint) refers to gps.o(.data) for .data
    gps.o(i.gpsWrite) refers to serial.o(i.serialWrite) for serialWrite
    gps.o(i.gpsWrite) refers to gps.o(.data) for .data
    io.o(i.IOConfigGPIO) refers to io.o(i.IO_GPIOPortIdx) for IO_GPIOPortIdx
    io.o(i.IOConfigGPIO) refers to rcc.o(i.RCC_ClockCmd) for RCC_ClockCmd
    io.o(i.IOConfigGPIO) refers to stm32f4xx_gpio.o(i.GPIO_Init) for GPIO_Init
    io.o(i.IOConfigGPIO) refers to io.o(.constdata) for .constdata
    io.o(i.IOConfigGPIOAF) refers to io.o(i.IO_GPIOPortIdx) for IO_GPIOPortIdx
    io.o(i.IOConfigGPIOAF) refers to rcc.o(i.RCC_ClockCmd) for RCC_ClockCmd
    io.o(i.IOConfigGPIOAF) refers to io.o(i.IO_GPIO_PinSource) for IO_GPIO_PinSource
    io.o(i.IOConfigGPIOAF) refers to stm32f4xx_gpio.o(i.GPIO_PinAFConfig) for GPIO_PinAFConfig
    io.o(i.IOConfigGPIOAF) refers to stm32f4xx_gpio.o(i.GPIO_Init) for GPIO_Init
    io.o(i.IOConfigGPIOAF) refers to io.o(.constdata) for .constdata
    io.o(i.IOGetByTag) refers to io.o(.constdata) for .constdata
    io.o(i.IOGetByTag) refers to io.o(.bss) for .bss
    io.o(i.IOGlobalInit) refers to io.o(.bss) for .bss
    io.o(i.IOGlobalInit) refers to io.o(.constdata) for .constdata
    io.o(i.IO_EXTI_Line) refers to io.o(i.IO_GPIOPinIdx) for IO_GPIOPinIdx
    io.o(i.IO_EXTI_PinSource) refers to io.o(i.IO_GPIOPinIdx) for IO_GPIOPinIdx
    io.o(i.IO_EXTI_PortSourceGPIO) refers to io.o(i.IO_GPIOPortIdx) for IO_GPIOPortIdx
    io.o(i.IO_GPIO_PinSource) refers to io.o(i.IO_GPIOPinIdx) for IO_GPIOPinIdx
    led.o(i.LedInit) refers to led.o(i.LedSet) for LedSet
    led.o(i.LedInit) refers to io.o(i.IOGetByTag) for IOGetByTag
    led.o(i.LedInit) refers to io.o(i.IOInit) for IOInit
    led.o(i.LedInit) refers to io.o(i.IOConfigGPIO) for IOConfigGPIO
    led.o(i.LedInit) refers to led.o(.data) for .data
    led.o(i.LedInit) refers to led.o(.bss) for .bss
    led.o(i.LedSet) refers to io.o(i.IOWrite) for IOWrite
    led.o(i.LedSet) refers to led.o(.data) for .data
    led.o(i.LedSet) refers to led.o(.bss) for .bss
    led.o(i.LedToggle) refers to io.o(i.IOToggle) for IOToggle
    led.o(i.LedToggle) refers to led.o(.bss) for .bss
    led.o(i.taskLed3) refers to led.o(i.LedToggle) for LedToggle
    led.o(i.taskLed4) refers to led.o(i.LedToggle) for LedToggle
    led.o(i.taskLed5) refers to led.o(i.LedToggle) for LedToggle
    led.o(i.taskLed6) refers to led.o(i.LedToggle) for LedToggle
    pwm_output.o(i.dcBrushedMotorInit) refers to io.o(i.IOGetByTag) for IOGetByTag
    pwm_output.o(i.dcBrushedMotorInit) refers to io.o(i.IOInit) for IOInit
    pwm_output.o(i.dcBrushedMotorInit) refers to io.o(i.IOConfigGPIO) for IOConfigGPIO
    pwm_output.o(i.dcBrushedMotorInit) refers to timer.o(i.timerGetByTag) for timerGetByTag
    pwm_output.o(i.dcBrushedMotorInit) refers to io.o(i.IOConfigGPIOAF) for IOConfigGPIOAF
    pwm_output.o(i.dcBrushedMotorInit) refers to timer.o(i.configTimeBase4Encoder) for configTimeBase4Encoder
    pwm_output.o(i.dcBrushedMotorInit) refers to stm32f4xx_tim.o(i.TIM_OCStructInit) for TIM_OCStructInit
    pwm_output.o(i.dcBrushedMotorInit) refers to timer.o(i.timerOCInit) for timerOCInit
    pwm_output.o(i.dcBrushedMotorInit) refers to timer.o(i.timerOCPreloadConfig) for timerOCPreloadConfig
    pwm_output.o(i.dcBrushedMotorInit) refers to stm32f4xx_tim.o(i.TIM_CtrlPWMOutputs) for TIM_CtrlPWMOutputs
    pwm_output.o(i.dcBrushedMotorInit) refers to stm32f4xx_tim.o(i.TIM_Cmd) for TIM_Cmd
    pwm_output.o(i.dcBrushedMotorInit) refers to timer.o(i.timerChCCR) for timerChCCR
    pwm_output.o(i.dcBrushedMotorInit) refers to pwm_output.o(.data) for .data
    pwm_output.o(i.dcBrushedMotorInit) refers to pwm_output.o(.bss) for .bss
    pwm_output.o(i.pwmWriteDcBrushedMotor) refers to pwm_output.o(.bss) for .bss
    rcc.o(i.RCC_ClockCmd) refers to stm32f4xx_rcc.o(i.RCC_AHB1PeriphClockCmd) for RCC_AHB1PeriphClockCmd
    rcc.o(i.RCC_ClockCmd) refers to stm32f4xx_rcc.o(i.RCC_APB2PeriphClockCmd) for RCC_APB2PeriphClockCmd
    rcc.o(i.RCC_ClockCmd) refers to stm32f4xx_rcc.o(i.RCC_APB1PeriphClockCmd) for RCC_APB1PeriphClockCmd
    rcc.o(i.RCC_ResetCmd) refers to stm32f4xx_rcc.o(i.RCC_AHB1PeriphResetCmd) for RCC_AHB1PeriphResetCmd
    rcc.o(i.RCC_ResetCmd) refers to stm32f4xx_rcc.o(i.RCC_APB2PeriphResetCmd) for RCC_APB2PeriphResetCmd
    rcc.o(i.RCC_ResetCmd) refers to stm32f4xx_rcc.o(i.RCC_APB1PeriphResetCmd) for RCC_APB1PeriphResetCmd
    rx_pwm.o(i.isPWMDataBeingReceived) refers to rx_pwm.o(.bss) for .bss
    rx_pwm.o(i.pwmEdgeCallback) refers to _printf_percent.o(.ARM.Collect$$_printf_percent$$00000000) for _printf_percent
    rx_pwm.o(i.pwmEdgeCallback) refers to _printf_d.o(.ARM.Collect$$_printf_percent$$00000009) for _printf_d
    rx_pwm.o(i.pwmEdgeCallback) refers to _printf_u.o(.ARM.Collect$$_printf_percent$$0000000A) for _printf_u
    rx_pwm.o(i.pwmEdgeCallback) refers to _printf_s.o(.ARM.Collect$$_printf_percent$$00000014) for _printf_s
    rx_pwm.o(i.pwmEdgeCallback) refers to _printf_dec.o(.text) for _printf_int_dec
    rx_pwm.o(i.pwmEdgeCallback) refers to _printf_str.o(.text) for _printf_str
    rx_pwm.o(i.pwmEdgeCallback) refers to noretval__2printf.o(.text) for __2printf
    rx_pwm.o(i.pwmEdgeCallback) refers to rx_pwm.o(i.pwmICConfig) for pwmICConfig
    rx_pwm.o(i.pwmEdgeCallback) refers to rx_pwm.o(.constdata) for .constdata
    rx_pwm.o(i.pwmEdgeCallback) refers to rx_pwm.o(.bss) for .bss
    rx_pwm.o(i.pwmEncoderICConfig) refers to stm32f4xx_tim.o(i.TIM_ICStructInit) for TIM_ICStructInit
    rx_pwm.o(i.pwmEncoderICConfig) refers to stm32f4xx_tim.o(i.TIM_ICInit) for TIM_ICInit
    rx_pwm.o(i.pwmEncoderICConfig) refers to rx_pwm.o(.data) for .data
    rx_pwm.o(i.pwmEncoderInit) refers to timer.o(i.timerGetByTag) for timerGetByTag
    rx_pwm.o(i.pwmEncoderInit) refers to io.o(i.IOGetByTag) for IOGetByTag
    rx_pwm.o(i.pwmEncoderInit) refers to io.o(i.IOInit) for IOInit
    rx_pwm.o(i.pwmEncoderInit) refers to io.o(i.IOConfigGPIOAF) for IOConfigGPIOAF
    rx_pwm.o(i.pwmEncoderInit) refers to rx_pwm.o(i.pwmEncoderICConfig) for pwmEncoderICConfig
    rx_pwm.o(i.pwmEncoderInit) refers to stm32f4xx_tim.o(i.TIM_SelectSlaveMode) for TIM_SelectSlaveMode
    rx_pwm.o(i.pwmEncoderInit) refers to timer.o(i.configTimeBase4Encoder) for configTimeBase4Encoder
    rx_pwm.o(i.pwmEncoderInit) refers to stm32f4xx_tim.o(i.TIM_Cmd) for TIM_Cmd
    rx_pwm.o(i.pwmEncoderInit) refers to rx_pwm.o(.data) for .data
    rx_pwm.o(i.pwmICConfig) refers to stm32f4xx_tim.o(i.TIM_ICStructInit) for TIM_ICStructInit
    rx_pwm.o(i.pwmICConfig) refers to stm32f4xx_tim.o(i.TIM_ICInit) for TIM_ICInit
    rx_pwm.o(i.pwmOverflowCallback) refers to rx_pwm.o(.bss) for .bss
    rx_pwm.o(i.pwmRead) refers to rx_pwm.o(.bss) for .bss
    rx_pwm.o(i.pwmRxInit) refers to timer.o(i.timerGetByTag) for timerGetByTag
    rx_pwm.o(i.pwmRxInit) refers to io.o(i.IOGetByTag) for IOGetByTag
    rx_pwm.o(i.pwmRxInit) refers to io.o(i.IOInit) for IOInit
    rx_pwm.o(i.pwmRxInit) refers to io.o(i.IOConfigGPIOAF) for IOConfigGPIOAF
    rx_pwm.o(i.pwmRxInit) refers to rx_pwm.o(i.pwmICConfig) for pwmICConfig
    rx_pwm.o(i.pwmRxInit) refers to timer.o(i.timerConfigure) for timerConfigure
    rx_pwm.o(i.pwmRxInit) refers to timer.o(i.timerChCCHandlerInit) for timerChCCHandlerInit
    rx_pwm.o(i.pwmRxInit) refers to timer.o(i.timerChOvrHandlerInit) for timerChOvrHandlerInit
    rx_pwm.o(i.pwmRxInit) refers to timer.o(i.timerChConfigCallbacks) for timerChConfigCallbacks
    rx_pwm.o(i.pwmRxInit) refers to rx_pwm.o(.data) for .data
    rx_pwm.o(i.pwmRxInit) refers to rx_pwm.o(.bss) for .bss
    rx_pwm.o(i.pwmRxInit) refers to rx_pwm.o(i.pwmEdgeCallback) for pwmEdgeCallback
    rx_pwm.o(i.pwmRxInit) refers to rx_pwm.o(i.pwmOverflowCallback) for pwmOverflowCallback
    rx_pwm.o(i.ultrasoundTimerInit) refers to io.o(i.IOGetByTag) for IOGetByTag
    rx_pwm.o(i.ultrasoundTimerInit) refers to io.o(i.IOInit) for IOInit
    rx_pwm.o(i.ultrasoundTimerInit) refers to io.o(i.IOConfigGPIO) for IOConfigGPIO
    rx_pwm.o(i.ultrasoundTimerInit) refers to timer.o(i.timerGetByTag) for timerGetByTag
    rx_pwm.o(i.ultrasoundTimerInit) refers to io.o(i.IOConfigGPIOAF) for IOConfigGPIOAF
    rx_pwm.o(i.ultrasoundTimerInit) refers to rx_pwm.o(i.pwmICConfig) for pwmICConfig
    rx_pwm.o(i.ultrasoundTimerInit) refers to timer.o(i.timerConfigure) for timerConfigure
    rx_pwm.o(i.ultrasoundTimerInit) refers to timer.o(i.timerChCCHandlerInit) for timerChCCHandlerInit
    rx_pwm.o(i.ultrasoundTimerInit) refers to timer.o(i.timerChOvrHandlerInit) for timerChOvrHandlerInit
    rx_pwm.o(i.ultrasoundTimerInit) refers to timer.o(i.timerChConfigCallbacks) for timerChConfigCallbacks
    rx_pwm.o(i.ultrasoundTimerInit) refers to rx_pwm.o(.data) for .data
    rx_pwm.o(i.ultrasoundTimerInit) refers to rx_pwm.o(.bss) for .bss
    rx_pwm.o(i.ultrasoundTimerInit) refers to rx_pwm.o(i.pwmEdgeCallback) for pwmEdgeCallback
    rx_pwm.o(i.ultrasoundTimerInit) refers to rx_pwm.o(i.pwmOverflowCallback) for pwmOverflowCallback
    rxserial1test.o(i.rxSerial1TestInit) refers to serial.o(i.findSerialPortConfig) for findSerialPortConfig
    rxserial1test.o(i.rxSerial1TestInit) refers to serial.o(i.openSerialPort) for openSerialPort
    rxserial1test.o(i.rxSerial1TestInit) refers to rxserial1test.o(.data) for .data
    rxserial1test.o(i.rxSerial1TestPrint) refers to serial.o(i.serialPrint) for serialPrint
    rxserial1test.o(i.rxSerial1TestPrint) refers to rxserial1test.o(.data) for .data
    rxserial1test.o(i.rxSerial1TestWrite) refers to serial.o(i.serialWrite) for serialWrite
    rxserial1test.o(i.rxSerial1TestWrite) refers to rxserial1test.o(.data) for .data
    rxserial3test.o(i.rxSerial3TestInit) refers to serial.o(i.findSerialPortConfig) for findSerialPortConfig
    rxserial3test.o(i.rxSerial3TestInit) refers to serial.o(i.openSerialPort) for openSerialPort
    rxserial3test.o(i.rxSerial3TestInit) refers to rxserial3test.o(.data) for .data
    rxserial3test.o(i.rxSerial3TestPrint) refers to serial.o(i.serialPrint) for serialPrint
    rxserial3test.o(i.rxSerial3TestPrint) refers to rxserial3test.o(.data) for .data
    rxserial3test.o(i.rxSerial3TestWrite) refers to serial.o(i.serialWrite) for serialWrite
    rxserial3test.o(i.rxSerial3TestWrite) refers to rxserial3test.o(.data) for .data
    serial.o(i.findNextSerialPortConfig) refers to serial.o(.data) for .data
    serial.o(i.findSerialPortConfig) refers to serial.o(i.findNextSerialPortConfig) for findNextSerialPortConfig
    serial.o(i.findSerialPortConfig) refers to serial.o(.data) for .data
    serial.o(i.findSerialPortIndexByIdentifier) refers to serial.o(.constdata) for .constdata
    serial.o(i.findSerialPortUsageByIdentifier) refers to serial.o(.bss) for .bss
    serial.o(i.openSerialPort) refers to serial.o(i.findSerialPortUsageByIdentifier) for findSerialPortUsageByIdentifier
    serial.o(i.openSerialPort) refers to serial_uart.o(i.uartOpen) for uartOpen
    serial.o(i.serialInit) refers to rt_memclr_w.o(.text) for __aeabi_memclr4
    serial.o(i.serialInit) refers to serial.o(.data) for .data
    serial.o(i.serialInit) refers to serial.o(.bss) for .bss
    serial.o(i.serialInit) refers to serial.o(.constdata) for .constdata
    serial.o(i.serialPrint) refers to serial.o(i.serialWrite) for serialWrite
    serial_uart.o(i.uartOpen) refers to serial_uart_stm32f4xx.o(i.serialUART1) for serialUART1
    serial_uart.o(i.uartOpen) refers to serial_uart_stm32f4xx.o(i.serialUART3) for serialUART3
    serial_uart.o(i.uartOpen) refers to serial_uart_stm32f4xx.o(i.serialUART6) for serialUART6
    serial_uart.o(i.uartOpen) refers to serial_uart.o(i.uartReconfigure) for uartReconfigure
    serial_uart.o(i.uartOpen) refers to stm32f4xx_dma.o(i.DMA_StructInit) for DMA_StructInit
    serial_uart.o(i.uartOpen) refers to stm32f4xx_dma.o(i.DMA_DeInit) for DMA_DeInit
    serial_uart.o(i.uartOpen) refers to stm32f4xx_dma.o(i.DMA_Init) for DMA_Init
    serial_uart.o(i.uartOpen) refers to stm32f4xx_dma.o(i.DMA_Cmd) for DMA_Cmd
    serial_uart.o(i.uartOpen) refers to stm32f4xx_usart.o(i.USART_DMACmd) for USART_DMACmd
    serial_uart.o(i.uartOpen) refers to stm32f4xx_dma.o(i.DMA_GetCurrDataCounter) for DMA_GetCurrDataCounter
    serial_uart.o(i.uartOpen) refers to stm32f4xx_usart.o(i.USART_ClearITPendingBit) for USART_ClearITPendingBit
    serial_uart.o(i.uartOpen) refers to stm32f4xx_usart.o(i.USART_ITConfig) for USART_ITConfig
    serial_uart.o(i.uartOpen) refers to stm32f4xx_dma.o(i.DMA_ITConfig) for DMA_ITConfig
    serial_uart.o(i.uartOpen) refers to stm32f4xx_dma.o(i.DMA_SetCurrDataCounter) for DMA_SetCurrDataCounter
    serial_uart.o(i.uartOpen) refers to stm32f4xx_usart.o(i.USART_Cmd) for USART_Cmd
    serial_uart.o(i.uartReconfigure) refers to stm32f4xx_usart.o(i.USART_Cmd) for USART_Cmd
    serial_uart.o(i.uartReconfigure) refers to stm32f4xx_usart.o(i.USART_Init) for USART_Init
    serial_uart.o(i.uartReconfigure) refers to stm32f4xx_usart.o(i.USART_HalfDuplexCmd) for USART_HalfDuplexCmd
    serial_uart.o(i.uartSetBaudRate) refers to serial_uart.o(i.uartReconfigure) for uartReconfigure
    serial_uart.o(i.uartSetMode) refers to serial_uart.o(i.uartReconfigure) for uartReconfigure
    serial_uart.o(i.uartStartTxDMA) refers to stm32f4xx_dma.o(i.DMA_Cmd) for DMA_Cmd
    serial_uart.o(i.uartStartTxDMA) refers to stm32f4xx_dma.o(i.DMA_MemoryTargetConfig) for DMA_MemoryTargetConfig
    serial_uart.o(i.uartWrite) refers to serial_uart.o(i.uartStartTxDMA) for uartStartTxDMA
    serial_uart.o(i.uartWrite) refers to stm32f4xx_usart.o(i.USART_ITConfig) for USART_ITConfig
    serial_uart.o(.constdata) refers to serial_uart.o(i.uartWrite) for uartWrite
    serial_uart.o(.constdata) refers to serial_uart.o(i.uartTotalRxBytesWaiting) for uartTotalRxBytesWaiting
    serial_uart.o(.constdata) refers to serial_uart.o(i.uartTotalTxBytesFree) for uartTotalTxBytesFree
    serial_uart.o(.constdata) refers to serial_uart.o(i.uartRead) for uartRead
    serial_uart.o(.constdata) refers to serial_uart.o(i.uartSetBaudRate) for uartSetBaudRate
    serial_uart.o(.constdata) refers to serial_uart.o(i.isUartTransmitBufferEmpty) for isUartTransmitBufferEmpty
    serial_uart.o(.constdata) refers to serial_uart.o(i.uartSetMode) for uartSetMode
    serial_uart_stm32f4xx.o(i.USART1_IRQHandler) refers to serial_uart_stm32f4xx.o(i.uartIrqHandler) for uartIrqHandler
    serial_uart_stm32f4xx.o(i.USART1_IRQHandler) refers to serial_uart_stm32f4xx.o(.data) for .data
    serial_uart_stm32f4xx.o(i.USART3_IRQHandler) refers to serial_uart_stm32f4xx.o(i.uartIrqHandler) for uartIrqHandler
    serial_uart_stm32f4xx.o(i.USART3_IRQHandler) refers to serial_uart_stm32f4xx.o(.data) for .data
    serial_uart_stm32f4xx.o(i.USART6_IRQHandler) refers to serial_uart_stm32f4xx.o(i.uartIrqHandler) for uartIrqHandler
    serial_uart_stm32f4xx.o(i.USART6_IRQHandler) refers to serial_uart_stm32f4xx.o(.data) for .data
    serial_uart_stm32f4xx.o(i.serialUART) refers to io.o(i.IOGetByTag) for IOGetByTag
    serial_uart_stm32f4xx.o(i.serialUART) refers to rcc.o(i.RCC_ClockCmd) for RCC_ClockCmd
    serial_uart_stm32f4xx.o(i.serialUART) refers to io.o(i.IOInit) for IOInit
    serial_uart_stm32f4xx.o(i.serialUART) refers to io.o(i.IOConfigGPIOAF) for IOConfigGPIOAF
    serial_uart_stm32f4xx.o(i.serialUART) refers to misc.o(i.NVIC_Init) for NVIC_Init
    serial_uart_stm32f4xx.o(i.serialUART) refers to serial_uart_stm32f4xx.o(.data) for .data
    serial_uart_stm32f4xx.o(i.serialUART) refers to serial_uart.o(.constdata) for uartVTable
    serial_uart_stm32f4xx.o(i.serialUART1) refers to serial_uart_stm32f4xx.o(i.serialUART) for serialUART
    serial_uart_stm32f4xx.o(i.serialUART3) refers to serial_uart_stm32f4xx.o(i.serialUART) for serialUART
    serial_uart_stm32f4xx.o(i.serialUART6) refers to serial_uart_stm32f4xx.o(i.serialUART) for serialUART
    serial_uart_stm32f4xx.o(i.uartIrqHandler) refers to stm32f4xx_usart.o(i.USART_GetITStatus) for USART_GetITStatus
    serial_uart_stm32f4xx.o(i.uartIrqHandler) refers to stm32f4xx_usart.o(i.USART_SendData) for USART_SendData
    serial_uart_stm32f4xx.o(i.uartIrqHandler) refers to stm32f4xx_usart.o(i.USART_ITConfig) for USART_ITConfig
    serial_uart_stm32f4xx.o(i.uartIrqHandler) refers to stm32f4xx_usart.o(i.USART_ClearITPendingBit) for USART_ClearITPendingBit
    serial_uart_stm32f4xx.o(i.uartIrqHandler) refers to serial_uart_stm32f4xx.o(.data) for .data
    serial_uart_stm32f4xx.o(.data) refers to serial_uart_stm32f4xx.o(.data) for uart1
    serial_uart_stm32f4xx.o(.data) refers to serial_uart_stm32f4xx.o(.data) for uart3
    serial_uart_stm32f4xx.o(.data) refers to serial_uart_stm32f4xx.o(.data) for uart6
    sound_beeper.o(i.beeperInit) refers to io.o(i.IOGetByTag) for IOGetByTag
    sound_beeper.o(i.beeperInit) refers to io.o(i.IOInit) for IOInit
    sound_beeper.o(i.beeperInit) refers to io.o(i.IOConfigGPIO) for IOConfigGPIO
    sound_beeper.o(i.beeperInit) refers to sound_beeper.o(i.systemBeep) for systemBeep
    sound_beeper.o(i.beeperInit) refers to sound_beeper.o(.data) for .data
    sound_beeper.o(i.systemBeep) refers to io.o(i.IOWrite) for IOWrite
    sound_beeper.o(i.systemBeep) refers to sound_beeper.o(.data) for .data
    sound_beeper.o(i.systemBeeperToggle) refers to io.o(i.IOToggle) for IOToggle
    sound_beeper.o(i.systemBeeperToggle) refers to sound_beeper.o(.data) for .data
    timer.o(i.TIM1_CC_IRQHandler) refers to timer.o(i.timCCxHandler) for timCCxHandler
    timer.o(i.TIM1_CC_IRQHandler) refers to timer.o(.bss) for .bss
    timer.o(i.TIM2_IRQHandler) refers to timer.o(i.timCCxHandler) for timCCxHandler
    timer.o(i.TIM2_IRQHandler) refers to timer.o(.bss) for .bss
    timer.o(i.TIM3_IRQHandler) refers to timer.o(i.timCCxHandler) for timCCxHandler
    timer.o(i.TIM3_IRQHandler) refers to timer.o(.bss) for .bss
    timer.o(i.TIM4_IRQHandler) refers to timer.o(i.timCCxHandler) for timCCxHandler
    timer.o(i.TIM4_IRQHandler) refers to timer.o(.bss) for .bss
    timer.o(i.TIM5_IRQHandler) refers to timer.o(i.timCCxHandler) for timCCxHandler
    timer.o(i.TIM5_IRQHandler) refers to timer.o(.bss) for .bss
    timer.o(i.configTimeBase4Encoder) refers to stm32f4xx_tim.o(i.TIM_TimeBaseStructInit) for TIM_TimeBaseStructInit
    timer.o(i.configTimeBase4Encoder) refers to stm32f4xx_tim.o(i.TIM_TimeBaseInit) for TIM_TimeBaseInit
    timer.o(i.configTimeBase4MotorEncoder) refers to stm32f4xx_tim.o(i.TIM_TimeBaseStructInit) for TIM_TimeBaseStructInit
    timer.o(i.configTimeBase4MotorEncoder) refers to stm32f4xx_tim.o(i.TIM_TimeBaseInit) for TIM_TimeBaseInit
    timer.o(i.configTimeBaseKhz) refers to stm32f4xx_tim.o(i.TIM_TimeBaseStructInit) for TIM_TimeBaseStructInit
    timer.o(i.configTimeBaseKhz) refers to timer_stm32f4xx.o(i.timerClockDivisor) for timerClockDivisor
    timer.o(i.configTimeBaseKhz) refers to stm32f4xx_tim.o(i.TIM_TimeBaseInit) for TIM_TimeBaseInit
    timer.o(i.configTimeBaseKhz) refers to system_stm32f4xx.o(.data) for SystemCoreClock
    timer.o(i.configTimeBaseMhz) refers to stm32f4xx_tim.o(i.TIM_TimeBaseStructInit) for TIM_TimeBaseStructInit
    timer.o(i.configTimeBaseMhz) refers to timer_stm32f4xx.o(i.timerClockDivisor) for timerClockDivisor
    timer.o(i.configTimeBaseMhz) refers to stm32f4xx_tim.o(i.TIM_TimeBaseInit) for TIM_TimeBaseInit
    timer.o(i.configTimeBaseMhz) refers to system_stm32f4xx.o(.data) for SystemCoreClock
    timer.o(i.configTimeBaseMhz4UserBtn) refers to stm32f4xx_tim.o(i.TIM_TimeBaseStructInit) for TIM_TimeBaseStructInit
    timer.o(i.configTimeBaseMhz4UserBtn) refers to timer_stm32f4xx.o(i.timerClockDivisor) for timerClockDivisor
    timer.o(i.configTimeBaseMhz4UserBtn) refers to stm32f4xx_tim.o(i.TIM_TimeBaseInit) for TIM_TimeBaseInit
    timer.o(i.configTimeBaseMhz4UserBtn) refers to system_stm32f4xx.o(.data) for SystemCoreClock
    timer.o(i.timerChConfigCallbacks) refers to timer.o(i.lookupTimerIndex) for lookupTimerIndex
    timer.o(i.timerChConfigCallbacks) refers to stm32f4xx_tim.o(i.TIM_ITConfig) for TIM_ITConfig
    timer.o(i.timerChConfigCallbacks) refers to timer.o(.bss) for .bss
    timer.o(i.timerConfigure) refers to timer.o(i.configTimeBaseMhz) for configTimeBaseMhz
    timer.o(i.timerConfigure) refers to stm32f4xx_tim.o(i.TIM_Cmd) for TIM_Cmd
    timer.o(i.timerConfigure) refers to timer.o(i.timerInputIrq) for timerInputIrq
    timer.o(i.timerConfigure) refers to timer.o(i.timerNVICConfigure) for timerNVICConfigure
    timer.o(i.timerConfigure4UserBtn) refers to timer.o(i.configTimeBaseMhz4UserBtn) for configTimeBaseMhz4UserBtn
    timer.o(i.timerConfigure4UserBtn) refers to stm32f4xx_tim.o(i.TIM_Cmd) for TIM_Cmd
    timer.o(i.timerConfigure4UserBtn) refers to timer.o(i.timerInputIrq) for timerInputIrq
    timer.o(i.timerConfigure4UserBtn) refers to timer.o(i.timerNVICConfigure) for timerNVICConfigure
    timer.o(i.timerForceOverflow) refers to timer.o(i.lookupTimerIndex) for lookupTimerIndex
    timer.o(i.timerForceOverflow) refers to timer.o(.bss) for .bss
    timer.o(i.timerGetByTag) refers to target.o(.constdata) for timerHardware
    timer.o(i.timerInit) refers to rt_memclr_w.o(.text) for __aeabi_memclr4
    timer.o(i.timerInit) refers to timer.o(i.timerRCC) for timerRCC
    timer.o(i.timerInit) refers to rcc.o(i.RCC_ClockCmd) for RCC_ClockCmd
    timer.o(i.timerInit) refers to io.o(i.IOGetByTag) for IOGetByTag
    timer.o(i.timerInit) refers to io.o(i.IOConfigGPIOAF) for IOConfigGPIOAF
    timer.o(i.timerInit) refers to timer.o(.bss) for .bss
    timer.o(i.timerInit) refers to target.o(.constdata) for timerHardware
    timer.o(i.timerInputIrq) refers to timer_stm32f4xx.o(.constdata) for timerDefinitions
    timer.o(i.timerNVICConfigure) refers to misc.o(i.NVIC_Init) for NVIC_Init
    timer.o(i.timerOCInit) refers to stm32f4xx_tim.o(i.TIM_OC4Init) for TIM_OC4Init
    timer.o(i.timerOCInit) refers to stm32f4xx_tim.o(i.TIM_OC1Init) for TIM_OC1Init
    timer.o(i.timerOCInit) refers to stm32f4xx_tim.o(i.TIM_OC2Init) for TIM_OC2Init
    timer.o(i.timerOCInit) refers to stm32f4xx_tim.o(i.TIM_OC3Init) for TIM_OC3Init
    timer.o(i.timerOCPreloadConfig) refers to stm32f4xx_tim.o(i.TIM_OC4PreloadConfig) for TIM_OC4PreloadConfig
    timer.o(i.timerOCPreloadConfig) refers to stm32f4xx_tim.o(i.TIM_OC1PreloadConfig) for TIM_OC1PreloadConfig
    timer.o(i.timerOCPreloadConfig) refers to stm32f4xx_tim.o(i.TIM_OC2PreloadConfig) for TIM_OC2PreloadConfig
    timer.o(i.timerOCPreloadConfig) refers to stm32f4xx_tim.o(i.TIM_OC3PreloadConfig) for TIM_OC3PreloadConfig
    timer.o(i.timerRCC) refers to timer_stm32f4xx.o(.constdata) for timerDefinitions
    oled.o(i.OLED_Clear) refers to oled.o(i.OLED_Refresh_Gram) for OLED_Refresh_Gram
    oled.o(i.OLED_Clear) refers to oled.o(.bss) for .bss
    oled.o(i.OLED_Display_Off) refers to oled.o(i.OLED_WR_Byte) for OLED_WR_Byte
    oled.o(i.OLED_Display_On) refers to oled.o(i.OLED_WR_Byte) for OLED_WR_Byte
    oled.o(i.OLED_DrawPoint) refers to oled.o(.bss) for .bss
    oled.o(i.OLED_Refresh_Gram) refers to oled.o(i.OLED_WR_Byte) for OLED_WR_Byte
    oled.o(i.OLED_Refresh_Gram) refers to oled.o(.bss) for .bss
    oled.o(i.OLED_ShowChar) refers to oled.o(i.OLED_DrawPoint) for OLED_DrawPoint
    oled.o(i.OLED_ShowChar) refers to oled.o(.constdata) for .constdata
    oled.o(i.OLED_ShowNumber) refers to oled.o(i.oled_pow) for oled_pow
    oled.o(i.OLED_ShowNumber) refers to oled.o(i.OLED_ShowChar) for OLED_ShowChar
    oled.o(i.OLED_ShowString) refers to oled.o(i.OLED_Clear) for OLED_Clear
    oled.o(i.OLED_ShowString) refers to oled.o(i.OLED_ShowChar) for OLED_ShowChar
    oled.o(i.OLED_WR_Byte) refers to io.o(i.IOGetByTag) for IOGetByTag
    oled.o(i.OLED_WR_Byte) refers to io.o(i.IOHi) for IOHi
    oled.o(i.OLED_WR_Byte) refers to io.o(i.IOLo) for IOLo
    oled.o(i.OLED_WR_Byte) refers to config.o(.bss) for masterConfig
    oled.o(i.oledInit) refers to io.o(i.IOGetByTag) for IOGetByTag
    oled.o(i.oledInit) refers to io.o(i.IOInit) for IOInit
    oled.o(i.oledInit) refers to io.o(i.IOConfigGPIO) for IOConfigGPIO
    oled.o(i.oledInit) refers to io.o(i.IOLo) for IOLo
    oled.o(i.oledInit) refers to system.o(i.delay) for delay
    oled.o(i.oledInit) refers to io.o(i.IOHi) for IOHi
    oled.o(i.oledInit) refers to oled.o(i.OLED_WR_Byte) for OLED_WR_Byte
    oled.o(i.oledInit) refers to oled.o(i.OLED_Clear) for OLED_Clear
    oled.o(i.oledInit) refers to oled.o(.data) for .data
    oled.o(i.oledInit) refers to config.o(.bss) for masterConfig
    bluetoothserial6.o(i.bluetoothSerial6Init) refers to serial.o(i.findSerialPortConfig) for findSerialPortConfig
    bluetoothserial6.o(i.bluetoothSerial6Init) refers to serial.o(i.openSerialPort) for openSerialPort
    bluetoothserial6.o(i.bluetoothSerial6Init) refers to bluetoothserial6.o(.data) for .data
    bluetoothserial6.o(i.bluetoothSerial6Print) refers to serial.o(i.serialPrint) for serialPrint
    bluetoothserial6.o(i.bluetoothSerial6Print) refers to bluetoothserial6.o(.data) for .data
    bluetoothserial6.o(i.bluetoothSerial6Read) refers to serial.o(i.serialRead) for serialRead
    bluetoothserial6.o(i.bluetoothSerial6Read) refers to bluetoothserial6.o(.data) for .data
    bluetoothserial6.o(i.bluetoothSerial6Write) refers to serial.o(i.serialWrite) for serialWrite
    bluetoothserial6.o(i.bluetoothSerial6Write) refers to bluetoothserial6.o(.data) for .data
    ultrasound_hcsr04.o(i.hcsr04_extiHandler_ultrasound1) refers to io.o(i.IORead) for IORead
    ultrasound_hcsr04.o(i.hcsr04_extiHandler_ultrasound1) refers to system.o(i.micros) for micros
    ultrasound_hcsr04.o(i.hcsr04_extiHandler_ultrasound1) refers to ultrasound_hcsr04.o(.data) for .data
    ultrasound_hcsr04.o(i.hcsr04_extiHandler_ultrasound2) refers to io.o(i.IORead) for IORead
    ultrasound_hcsr04.o(i.hcsr04_extiHandler_ultrasound2) refers to system.o(i.micros) for micros
    ultrasound_hcsr04.o(i.hcsr04_extiHandler_ultrasound2) refers to ultrasound_hcsr04.o(.data) for .data
    ultrasound_hcsr04.o(i.hcsr04_extiHandler_ultrasound3) refers to io.o(i.IORead) for IORead
    ultrasound_hcsr04.o(i.hcsr04_extiHandler_ultrasound3) refers to system.o(i.micros) for micros
    ultrasound_hcsr04.o(i.hcsr04_extiHandler_ultrasound3) refers to ultrasound_hcsr04.o(.data) for .data
    ultrasound_hcsr04.o(i.hcsr04_extiHandler_ultrasound4) refers to io.o(i.IORead) for IORead
    ultrasound_hcsr04.o(i.hcsr04_extiHandler_ultrasound4) refers to system.o(i.micros) for micros
    ultrasound_hcsr04.o(i.hcsr04_extiHandler_ultrasound4) refers to ultrasound_hcsr04.o(.data) for .data
    ultrasound_hcsr04.o(i.hcsr04_extiHandler_ultrasound5) refers to io.o(i.IORead) for IORead
    ultrasound_hcsr04.o(i.hcsr04_extiHandler_ultrasound5) refers to system.o(i.micros) for micros
    ultrasound_hcsr04.o(i.hcsr04_extiHandler_ultrasound5) refers to ultrasound_hcsr04.o(.data) for .data
    ultrasound_hcsr04.o(i.hcsr04_extiHandler_ultrasound6) refers to io.o(i.IORead) for IORead
    ultrasound_hcsr04.o(i.hcsr04_extiHandler_ultrasound6) refers to system.o(i.micros) for micros
    ultrasound_hcsr04.o(i.hcsr04_extiHandler_ultrasound6) refers to ultrasound_hcsr04.o(.data) for .data
    ultrasound_hcsr04.o(i.hcsr04_init) refers to io.o(i.IOGetByTag) for IOGetByTag
    ultrasound_hcsr04.o(i.hcsr04_init) refers to io.o(i.IOInit) for IOInit
    ultrasound_hcsr04.o(i.hcsr04_init) refers to io.o(i.IOConfigGPIO) for IOConfigGPIO
    ultrasound_hcsr04.o(i.hcsr04_init) refers to exti.o(i.EXTIHandlerInit) for EXTIHandlerInit
    ultrasound_hcsr04.o(i.hcsr04_init) refers to exti.o(i.EXTIConfig) for EXTIConfig
    ultrasound_hcsr04.o(i.hcsr04_init) refers to exti.o(i.EXTIEnable) for EXTIEnable
    ultrasound_hcsr04.o(i.hcsr04_init) refers to system.o(i.millis) for millis
    ultrasound_hcsr04.o(i.hcsr04_init) refers to ultrasound_hcsr04.o(.data) for .data
    ultrasound_hcsr04.o(i.hcsr04_init) refers to ultrasound_hcsr04.o(i.hcsr04_extiHandler_ultrasound1) for hcsr04_extiHandler_ultrasound1
    ultrasound_hcsr04.o(i.hcsr04_init) refers to ultrasound_hcsr04.o(i.hcsr04_extiHandler_ultrasound2) for hcsr04_extiHandler_ultrasound2
    ultrasound_hcsr04.o(i.hcsr04_init) refers to ultrasound_hcsr04.o(i.hcsr04_extiHandler_ultrasound3) for hcsr04_extiHandler_ultrasound3
    ultrasound_hcsr04.o(i.hcsr04_init) refers to ultrasound_hcsr04.o(i.hcsr04_extiHandler_ultrasound4) for hcsr04_extiHandler_ultrasound4
    ultrasound_hcsr04.o(i.hcsr04_init) refers to ultrasound_hcsr04.o(i.hcsr04_extiHandler_ultrasound5) for hcsr04_extiHandler_ultrasound5
    ultrasound_hcsr04.o(i.hcsr04_init) refers to ultrasound_hcsr04.o(i.hcsr04_extiHandler_ultrasound6) for hcsr04_extiHandler_ultrasound6
    ultrasound_hcsr04.o(i.hcsr04_ultrasound1_get_distance) refers to ultrasound_hcsr04.o(.data) for .data
    ultrasound_hcsr04.o(i.hcsr04_ultrasound1_start_sequence) refers to system.o(i.millis) for millis
    ultrasound_hcsr04.o(i.hcsr04_ultrasound1_start_sequence) refers to io.o(i.IOHi) for IOHi
    ultrasound_hcsr04.o(i.hcsr04_ultrasound1_start_sequence) refers to system.o(i.delayMicroseconds) for delayMicroseconds
    ultrasound_hcsr04.o(i.hcsr04_ultrasound1_start_sequence) refers to io.o(i.IOLo) for IOLo
    ultrasound_hcsr04.o(i.hcsr04_ultrasound1_start_sequence) refers to ultrasound_hcsr04.o(.data) for .data
    ultrasound_hcsr04.o(i.hcsr04_ultrasound2_get_distance) refers to ultrasound_hcsr04.o(.data) for .data
    ultrasound_hcsr04.o(i.hcsr04_ultrasound2_start_sequence) refers to system.o(i.millis) for millis
    ultrasound_hcsr04.o(i.hcsr04_ultrasound2_start_sequence) refers to io.o(i.IOHi) for IOHi
    ultrasound_hcsr04.o(i.hcsr04_ultrasound2_start_sequence) refers to system.o(i.delayMicroseconds) for delayMicroseconds
    ultrasound_hcsr04.o(i.hcsr04_ultrasound2_start_sequence) refers to io.o(i.IOLo) for IOLo
    ultrasound_hcsr04.o(i.hcsr04_ultrasound2_start_sequence) refers to ultrasound_hcsr04.o(.data) for .data
    ultrasound_hcsr04.o(i.hcsr04_ultrasound3_get_distance) refers to ultrasound_hcsr04.o(.data) for .data
    ultrasound_hcsr04.o(i.hcsr04_ultrasound3_start_sequence) refers to system.o(i.millis) for millis
    ultrasound_hcsr04.o(i.hcsr04_ultrasound3_start_sequence) refers to io.o(i.IOHi) for IOHi
    ultrasound_hcsr04.o(i.hcsr04_ultrasound3_start_sequence) refers to system.o(i.delayMicroseconds) for delayMicroseconds
    ultrasound_hcsr04.o(i.hcsr04_ultrasound3_start_sequence) refers to io.o(i.IOLo) for IOLo
    ultrasound_hcsr04.o(i.hcsr04_ultrasound3_start_sequence) refers to ultrasound_hcsr04.o(.data) for .data
    ultrasound_hcsr04.o(i.hcsr04_ultrasound4_get_distance) refers to ultrasound_hcsr04.o(.data) for .data
    ultrasound_hcsr04.o(i.hcsr04_ultrasound4_start_sequence) refers to system.o(i.millis) for millis
    ultrasound_hcsr04.o(i.hcsr04_ultrasound4_start_sequence) refers to io.o(i.IOHi) for IOHi
    ultrasound_hcsr04.o(i.hcsr04_ultrasound4_start_sequence) refers to system.o(i.delayMicroseconds) for delayMicroseconds
    ultrasound_hcsr04.o(i.hcsr04_ultrasound4_start_sequence) refers to io.o(i.IOLo) for IOLo
    ultrasound_hcsr04.o(i.hcsr04_ultrasound4_start_sequence) refers to ultrasound_hcsr04.o(.data) for .data
    ultrasound_hcsr04.o(i.hcsr04_ultrasound5_get_distance) refers to ultrasound_hcsr04.o(.data) for .data
    ultrasound_hcsr04.o(i.hcsr04_ultrasound5_start_sequence) refers to system.o(i.millis) for millis
    ultrasound_hcsr04.o(i.hcsr04_ultrasound5_start_sequence) refers to io.o(i.IOHi) for IOHi
    ultrasound_hcsr04.o(i.hcsr04_ultrasound5_start_sequence) refers to system.o(i.delayMicroseconds) for delayMicroseconds
    ultrasound_hcsr04.o(i.hcsr04_ultrasound5_start_sequence) refers to io.o(i.IOLo) for IOLo
    ultrasound_hcsr04.o(i.hcsr04_ultrasound5_start_sequence) refers to ultrasound_hcsr04.o(.data) for .data
    ultrasound_hcsr04.o(i.hcsr04_ultrasound6_get_distance) refers to ultrasound_hcsr04.o(.data) for .data
    ultrasound_hcsr04.o(i.hcsr04_ultrasound6_start_sequence) refers to system.o(i.millis) for millis
    ultrasound_hcsr04.o(i.hcsr04_ultrasound6_start_sequence) refers to io.o(i.IOHi) for IOHi
    ultrasound_hcsr04.o(i.hcsr04_ultrasound6_start_sequence) refers to system.o(i.delayMicroseconds) for delayMicroseconds
    ultrasound_hcsr04.o(i.hcsr04_ultrasound6_start_sequence) refers to io.o(i.IOLo) for IOLo
    ultrasound_hcsr04.o(i.hcsr04_ultrasound6_start_sequence) refers to ultrasound_hcsr04.o(.data) for .data
    config.o(i.ResetSerialConfig) refers to rt_memclr.o(.text) for __aeabi_memclr
    config.o(i.ResetSerialConfig) refers to serial.o(.constdata) for serialPortIdentifiers
    config.o(i.ResetSerialPinConfig) refers to serial.o(.constdata) for serialPortIdentifiers
    config.o(i.activateConfig) refers to acceleration.o(i.setAccelerationTrims) for setAccelerationTrims
    config.o(i.activateConfig) refers to acceleration.o(i.setAccelerationFilter) for setAccelerationFilter
    config.o(i.activateConfig) refers to imu.o(i.imuConfigure) for imuConfigure
    config.o(i.activateConfig) refers to config.o(.bss) for .bss
    config.o(i.activateConfig) refers to config.o(.data) for .data
    config.o(i.beeperOffClear) refers to config.o(.bss) for .bss
    config.o(i.beeperOffClearAll) refers to config.o(.bss) for .bss
    config.o(i.beeperOffSet) refers to config.o(.bss) for .bss
    config.o(i.beeperOffSetAll) refers to config.o(.bss) for .bss
    config.o(i.checkEEPROMContainsValidData) refers to config.o(i.resetEEPROM) for resetEEPROM
    config.o(i.createDefaultConfig) refers to rt_memclr_w.o(.text) for __aeabi_memclr4
    config.o(i.createDefaultConfig) refers to feature.o(i.intFeatureClearAll) for intFeatureClearAll
    config.o(i.createDefaultConfig) refers to feature.o(i.intFeatureSet) for intFeatureSet
    config.o(i.createDefaultConfig) refers to acceleration.o(i.ResetRollAndPitchTrims) for ResetRollAndPitchTrims
    config.o(i.createDefaultConfig) refers to config.o(i.ResetSerialPinConfig) for ResetSerialPinConfig
    config.o(i.createDefaultConfig) refers to config.o(i.ResetSerialConfig) for ResetSerialConfig
    config.o(i.createDefaultConfig) refers to config.o(i.ResetLedStatusConfig) for ResetLedStatusConfig
    config.o(i.createDefaultConfig) refers to config.o(i.ResetBeeperConfig) for ResetBeeperConfig
    config.o(i.createDefaultConfig) refers to strncpy.o(.text) for strncpy
    config.o(i.createDefaultConfig) refers to config.o(i.targetConfiguration) for targetConfiguration
    config.o(i.createDefaultConfig) refers to rt_memcpy_w.o(.text) for __aeabi_memcpy4
    config.o(i.createDefaultConfig) refers to target.o(.constdata) for timerHardware
    config.o(i.getBeeperOffMask) refers to config.o(.bss) for .bss
    config.o(i.getPreferredBeeperOffMask) refers to config.o(.bss) for .bss
    config.o(i.resetEEPROM) refers to config.o(i.createDefaultConfig) for createDefaultConfig
    config.o(i.resetEEPROM) refers to config.o(i.setProfile) for setProfile
    config.o(i.resetEEPROM) refers to config.o(.bss) for .bss
    config.o(i.setBeeperOffMask) refers to config.o(.bss) for .bss
    config.o(i.setPreferredBeeperOffMask) refers to config.o(.bss) for .bss
    config.o(i.setProfile) refers to config.o(.bss) for .bss
    config.o(i.setProfile) refers to config.o(.data) for .data
    config.o(i.targetConfiguration) refers to serial.o(i.findSerialPortIndexByIdentifier) for findSerialPortIndexByIdentifier
    config.o(i.targetConfiguration) refers to config.o(i.constrain) for constrain
    config.o(i.validateAndFixConfig) refers to feature.o(i.featureConfigured) for featureConfigured
    config.o(i.validateAndFixConfig) refers to feature.o(i.featureSet) for featureSet
    config.o(i.validateAndFixConfig) refers to feature.o(i.featureClear) for featureClear
    config.o(i.validateAndFixConfig) refers to config.o(i.validateAndFixGyroConfig) for validateAndFixGyroConfig
    config.o(i.validateAndFixConfig) refers to config.o(.data) for .data
    config.o(i.validateAndFixGyroConfig) refers to config.o(i.constrain) for constrain
    config.o(i.validateAndFixGyroConfig) refers to config.o(.bss) for .bss
    fc_tasks.o(i.Incremental_PIController) refers to fc_tasks.o(.data) for .data
    fc_tasks.o(i.activateMotors) refers to fc_tasks.o(.data) for .data
    fc_tasks.o(i.deactivateMotors) refers to io.o(i.IOGetByTag) for IOGetByTag
    fc_tasks.o(i.deactivateMotors) refers to io.o(i.IOLo) for IOLo
    fc_tasks.o(i.deactivateMotors) refers to config.o(.bss) for masterConfig
    fc_tasks.o(i.fcTasksInit) refers to scheduler.o(i.schedulerInit) for schedulerInit
    fc_tasks.o(i.fcTasksInit) refers to scheduler.o(i.setTaskEnabled) for setTaskEnabled
    fc_tasks.o(i.layDownSBWMR) refers to fc_tasks.o(.data) for .data
    fc_tasks.o(i.liftUpSBWMR) refers to fc_tasks.o(.data) for .data
    fc_tasks.o(i.taskMotorEncoder) refers to _printf_percent.o(.ARM.Collect$$_printf_percent$$00000000) for _printf_percent
    fc_tasks.o(i.taskMotorEncoder) refers to _printf_d.o(.ARM.Collect$$_printf_percent$$00000009) for _printf_d
    fc_tasks.o(i.taskMotorEncoder) refers to _printf_dec.o(.text) for _printf_int_dec
    fc_tasks.o(i.taskMotorEncoder) refers to fc_tasks.o(i.Read_Encoder) for Read_Encoder
    fc_tasks.o(i.taskMotorEncoder) refers to led.o(i.LedSet) for LedSet
    fc_tasks.o(i.taskMotorEncoder) refers to fc_tasks.o(i.limitMotorPwm) for limitMotorPwm
    fc_tasks.o(i.taskMotorEncoder) refers to fc_tasks.o(i.updateMotorPwm) for updateMotorPwm
    fc_tasks.o(i.taskMotorEncoder) refers to noretval__2printf.o(.text) for __2printf
    fc_tasks.o(i.taskMotorEncoder) refers to fc_tasks.o(.data) for .data
    fc_tasks.o(i.taskOLEDDisplay) refers to oled.o(i.OLED_ShowString) for OLED_ShowString
    fc_tasks.o(i.taskOLEDDisplay) refers to oled.o(i.OLED_ShowNumber) for OLED_ShowNumber
    fc_tasks.o(i.taskOLEDDisplay) refers to dflt_clz.o(x$fpl$dflt) for __aeabi_i2d
    fc_tasks.o(i.taskOLEDDisplay) refers to f2d.o(x$fpl$f2d) for __aeabi_f2d
    fc_tasks.o(i.taskOLEDDisplay) refers to round.o(i.__hardfp_round) for __hardfp_round
    fc_tasks.o(i.taskOLEDDisplay) refers to ddiv.o(x$fpl$ddiv) for __aeabi_ddiv
    fc_tasks.o(i.taskOLEDDisplay) refers to daddsub_clz.o(x$fpl$dsub) for __aeabi_dsub
    fc_tasks.o(i.taskOLEDDisplay) refers to dmul.o(x$fpl$dmul) for __aeabi_dmul
    fc_tasks.o(i.taskOLEDDisplay) refers to dfix.o(x$fpl$dfix) for __aeabi_d2iz
    fc_tasks.o(i.taskOLEDDisplay) refers to oled.o(i.OLED_Refresh_Gram) for OLED_Refresh_Gram
    fc_tasks.o(i.taskOLEDDisplay) refers to fc_tasks.o(.data) for .data
    fc_tasks.o(i.taskOLEDDisplay) refers to gyro.o(.data) for temperatureData
    fc_tasks.o(i.taskOLEDDisplay) refers to imu.o(.data) for attitude
    fc_tasks.o(i.taskUltrasound1ReadData) refers to ultrasound.o(i.ultrasound1Read) for ultrasound1Read
    fc_tasks.o(i.taskUltrasound1ReadData) refers to fc_tasks.o(.data) for .data
    fc_tasks.o(i.taskUltrasound2ReadData) refers to ultrasound.o(i.ultrasound2Read) for ultrasound2Read
    fc_tasks.o(i.taskUltrasound2ReadData) refers to fc_tasks.o(.data) for .data
    fc_tasks.o(i.taskUltrasound3ReadData) refers to ultrasound.o(i.ultrasound3Read) for ultrasound3Read
    fc_tasks.o(i.taskUltrasound3ReadData) refers to fc_tasks.o(.data) for .data
    fc_tasks.o(i.taskUltrasound4ReadData) refers to ultrasound.o(i.ultrasound4Read) for ultrasound4Read
    fc_tasks.o(i.taskUltrasound4ReadData) refers to fc_tasks.o(.data) for .data
    fc_tasks.o(i.taskUltrasound5ReadData) refers to ultrasound.o(i.ultrasound5Read) for ultrasound5Read
    fc_tasks.o(i.taskUltrasound5ReadData) refers to fc_tasks.o(.data) for .data
    fc_tasks.o(i.taskUltrasound6ReadData) refers to ultrasound.o(i.ultrasound6Read) for ultrasound6Read
    fc_tasks.o(i.taskUltrasound6ReadData) refers to fc_tasks.o(.data) for .data
    fc_tasks.o(i.taskUpdateAccelerometer) refers to acceleration.o(i.accUpdate) for accUpdate
    fc_tasks.o(i.taskUpdateAccelerometer) refers to config.o(.bss) for masterConfig
    fc_tasks.o(i.taskUpdateGyro) refers to gyro.o(i.gyroUpdate) for gyroUpdate
    fc_tasks.o(i.updateMotorPwm) refers to io.o(i.IOGetByTag) for IOGetByTag
    fc_tasks.o(i.updateMotorPwm) refers to io.o(i.IOHi) for IOHi
    fc_tasks.o(i.updateMotorPwm) refers to io.o(i.IOLo) for IOLo
    fc_tasks.o(i.updateMotorPwm) refers to pwm_output.o(i.pwmWriteDcBrushedMotor) for pwmWriteDcBrushedMotor
    fc_tasks.o(i.updateMotorPwm) refers to config.o(.bss) for masterConfig
    fc_tasks.o(.data) refers to fc_tasks.o(.conststring) for .conststring
    fc_tasks.o(.data) refers to scheduler.o(i.taskSystem) for taskSystem
    fc_tasks.o(.data) refers to fc_tasks.o(i.taskUpdateGyro) for taskUpdateGyro
    fc_tasks.o(.data) refers to fc_tasks.o(i.taskUpdateAccelerometer) for taskUpdateAccelerometer
    fc_tasks.o(.data) refers to imu.o(i.taskIMUUpdateAttitude) for taskIMUUpdateAttitude
    fc_tasks.o(.data) refers to fc_tasks.o(i.taskMotorEncoder) for taskMotorEncoder
    fc_tasks.o(.data) refers to fc_tasks.o(i.taskOLEDDisplay) for taskOLEDDisplay
    fc_tasks.o(.data) refers to ultrasound.o(i.ultrasound1Update) for ultrasound1Update
    fc_tasks.o(.data) refers to fc_tasks.o(i.taskUltrasound1ReadData) for taskUltrasound1ReadData
    fc_tasks.o(.data) refers to ultrasound.o(i.ultrasound2Update) for ultrasound2Update
    fc_tasks.o(.data) refers to fc_tasks.o(i.taskUltrasound2ReadData) for taskUltrasound2ReadData
    fc_tasks.o(.data) refers to ultrasound.o(i.ultrasound3Update) for ultrasound3Update
    fc_tasks.o(.data) refers to fc_tasks.o(i.taskUltrasound3ReadData) for taskUltrasound3ReadData
    fc_tasks.o(.data) refers to ultrasound.o(i.ultrasound4Update) for ultrasound4Update
    fc_tasks.o(.data) refers to fc_tasks.o(i.taskUltrasound4ReadData) for taskUltrasound4ReadData
    fc_tasks.o(.data) refers to ultrasound.o(i.ultrasound5Update) for ultrasound5Update
    fc_tasks.o(.data) refers to fc_tasks.o(i.taskUltrasound5ReadData) for taskUltrasound5ReadData
    fc_tasks.o(.data) refers to ultrasound.o(i.ultrasound6Update) for ultrasound6Update
    fc_tasks.o(.data) refers to fc_tasks.o(i.taskUltrasound6ReadData) for taskUltrasound6ReadData
    runtime_config.o(i.disableFlightMode) refers to runtime_config.o(.data) for .data
    runtime_config.o(i.enableFlightMode) refers to runtime_config.o(.data) for .data
    runtime_config.o(i.sensorClear) refers to runtime_config.o(.data) for .data
    runtime_config.o(i.sensorSet) refers to runtime_config.o(.data) for .data
    runtime_config.o(i.sensors) refers to runtime_config.o(.data) for .data
    runtime_config.o(i.sensorsMask) refers to runtime_config.o(.data) for .data
    imu.o(i.imuCalculateEstimatedAttitude) refers to imu.o(i.imuMahonyAHRSUpdate) for imuMahonyAHRSUpdate
    imu.o(i.imuCalculateEstimatedAttitude) refers to imu.o(i.imuUpdateEulerAngles) for imuUpdateEulerAngles
    imu.o(i.imuCalculateEstimatedAttitude) refers to imu.o(.data) for .data
    imu.o(i.imuCalculateEstimatedAttitude) refers to acceleration.o(.bss) for acc
    imu.o(i.imuCalculateEstimatedAttitude) refers to compass.o(.bss) for mag
    imu.o(i.imuCalculateEstimatedAttitude) refers to gyro.o(.bss) for gyro
    imu.o(i.imuComputeRotationMatrix) refers to imu.o(.data) for .data
    imu.o(i.imuComputeRotationMatrix) refers to imu.o(.bss) for .bss
    imu.o(i.imuConfigure) refers to imu.o(i.calculateAccZLowPassFilterRCTimeConstant) for calculateAccZLowPassFilterRCTimeConstant
    imu.o(i.imuConfigure) refers to imu.o(i.calculateThrottleAngleScale) for calculateThrottleAngleScale
    imu.o(i.imuConfigure) refers to imu.o(.bss) for .bss
    imu.o(i.imuConfigure) refers to imu.o(.data) for .data
    imu.o(i.imuInit) refers to maths.o(i.degreesToRadians) for degreesToRadians
    imu.o(i.imuInit) refers to maths.o(i.cosApprox) for cosApprox
    imu.o(i.imuInit) refers to imu.o(i.imuComputeRotationMatrix) for imuComputeRotationMatrix
    imu.o(i.imuInit) refers to imu.o(.bss) for .bss
    imu.o(i.imuInit) refers to imu.o(.data) for .data
    imu.o(i.imuInit) refers to acceleration.o(.bss) for acc
    imu.o(i.imuMahonyAHRSUpdate) refers to sqrtf.o(i.__hardfp_sqrtf) for __hardfp_sqrtf
    imu.o(i.imuMahonyAHRSUpdate) refers to imu.o(i.invSqrt) for invSqrt
    imu.o(i.imuMahonyAHRSUpdate) refers to system.o(i.millis) for millis
    imu.o(i.imuMahonyAHRSUpdate) refers to imu.o(i.imuComputeRotationMatrix) for imuComputeRotationMatrix
    imu.o(i.imuMahonyAHRSUpdate) refers to imu.o(.bss) for .bss
    imu.o(i.imuMahonyAHRSUpdate) refers to imu.o(.data) for .data
    imu.o(i.imuMahonyAHRSUpdate) refers to runtime_config.o(.data) for armingFlags
    imu.o(i.imuUpdateEulerAngles) refers to atan2f.o(i.__hardfp_atan2f) for __hardfp_atan2f
    imu.o(i.imuUpdateEulerAngles) refers to lrintf.o(i.__hardfp_lrintf) for __hardfp_lrintf
    imu.o(i.imuUpdateEulerAngles) refers to acosf.o(i.__hardfp_acosf) for __hardfp_acosf
    imu.o(i.imuUpdateEulerAngles) refers to imu.o(.bss) for .bss
    imu.o(i.imuUpdateEulerAngles) refers to imu.o(.data) for .data
    imu.o(i.imuUpdateEulerAngles) refers to runtime_config.o(.data) for stateFlags
    imu.o(i.invSqrt) refers to sqrtf.o(i.__hardfp_sqrtf) for __hardfp_sqrtf
    imu.o(i.taskIMUUpdateAttitude) refers to runtime_config.o(i.sensors) for sensors
    imu.o(i.taskIMUUpdateAttitude) refers to imu.o(i.imuCalculateEstimatedAttitude) for imuCalculateEstimatedAttitude
    imu.o(i.taskIMUUpdateAttitude) refers to acceleration.o(.bss) for acc
    config_eeprom.o(i.isEEPROMContentValid) refers to strncasecmp.o(.text) for strncasecmp
    config_eeprom.o(i.isEEPROMContentValid) refers to config_eeprom.o(i.calculateChecksum) for calculateChecksum
    config_eeprom.o(i.isEEPROMContentValid) refers to noretval__2printf.o(.text) for __2printf
    config_eeprom.o(i.readEEPROM) refers to config.o(i.setProfile) for setProfile
    config_eeprom.o(i.readEEPROM) refers to config.o(i.validateAndFixConfig) for validateAndFixConfig
    config_eeprom.o(i.readEEPROM) refers to config.o(i.activateConfig) for activateConfig
    config_eeprom.o(i.readEEPROM) refers to config.o(.bss) for masterConfig
    config_eeprom.o(i.writeEEPROM) refers to config_eeprom.o(i.calculateChecksum) for calculateChecksum
    config_eeprom.o(i.writeEEPROM) refers to stm32f4xx_flash.o(i.FLASH_Unlock) for FLASH_Unlock
    config_eeprom.o(i.writeEEPROM) refers to stm32f4xx_flash.o(i.FLASH_ClearFlag) for FLASH_ClearFlag
    config_eeprom.o(i.writeEEPROM) refers to stm32f4xx_flash.o(i.FLASH_EraseSector) for FLASH_EraseSector
    config_eeprom.o(i.writeEEPROM) refers to stm32f4xx_flash.o(i.FLASH_ProgramWord) for FLASH_ProgramWord
    config_eeprom.o(i.writeEEPROM) refers to stm32f4xx_flash.o(i.FLASH_Lock) for FLASH_Lock
    config_eeprom.o(i.writeEEPROM) refers to config_eeprom.o(i.isEEPROMContentValid) for isEEPROMContentValid
    config_eeprom.o(i.writeEEPROM) refers to noretval__2printf.o(.text) for __2printf
    config_eeprom.o(i.writeEEPROM) refers to config.o(.bss) for masterConfig
    feature.o(i.feature) refers to feature.o(.data) for .data
    feature.o(i.featureClear) refers to config.o(.bss) for masterConfig
    feature.o(i.featureClearAll) refers to config.o(.bss) for masterConfig
    feature.o(i.featureConfigured) refers to config.o(.bss) for masterConfig
    feature.o(i.featureMask) refers to config.o(.bss) for masterConfig
    feature.o(i.featureSet) refers to config.o(.bss) for masterConfig
    feature.o(i.latchActiveFeatures) refers to config.o(.bss) for masterConfig
    feature.o(i.latchActiveFeatures) refers to feature.o(.data) for .data
    acceleration.o(i.accDetect) refers to accgyro_spi_mpu9250.o(i.mpu9250SpiAccDetect) for mpu9250SpiAccDetect
    acceleration.o(i.accDetect) refers to runtime_config.o(i.sensorSet) for sensorSet
    acceleration.o(i.accDetect) refers to initialisation.o(.data) for detectedSensors
    acceleration.o(i.accInit) refers to rt_memclr_w.o(.text) for __aeabi_memclr4
    acceleration.o(i.accInit) refers to rt_memcpy_w.o(.text) for __aeabi_memcpy4
    acceleration.o(i.accInit) refers to acceleration.o(i.accDetect) for accDetect
    acceleration.o(i.accInit) refers to filter.o(i.biquadFilterInitLPF) for biquadFilterInitLPF
    acceleration.o(i.accInit) refers to acceleration.o(.bss) for .bss
    acceleration.o(i.accInit) refers to gyro.o(.bss) for gyro
    acceleration.o(i.accInit) refers to acceleration.o(.data) for .data
    acceleration.o(i.accSetCalibrationCycles) refers to acceleration.o(.data) for .data
    acceleration.o(i.accUpdate) refers to filter.o(i.biquadFilterApply) for biquadFilterApply
    acceleration.o(i.accUpdate) refers to lrintf.o(i.__hardfp_lrintf) for __hardfp_lrintf
    acceleration.o(i.accUpdate) refers to boardalignment.o(i.alignSensors) for alignSensors
    acceleration.o(i.accUpdate) refers to acceleration.o(i.isAccelerationCalibrationComplete) for isAccelerationCalibrationComplete
    acceleration.o(i.accUpdate) refers to acceleration.o(i.performAccelerationCalibration) for performAccelerationCalibration
    acceleration.o(i.accUpdate) refers to acceleration.o(.bss) for .bss
    acceleration.o(i.accUpdate) refers to acceleration.o(.data) for .data
    acceleration.o(i.isAccelerationCalibrationComplete) refers to acceleration.o(.data) for .data
    acceleration.o(i.performAccelerationCalibration) refers to acceleration.o(.data) for .data
    acceleration.o(i.performAccelerationCalibration) refers to acceleration.o(.bss) for .bss
    acceleration.o(i.setAccelerationFilter) refers to filter.o(i.biquadFilterInitLPF) for biquadFilterInitLPF
    acceleration.o(i.setAccelerationFilter) refers to acceleration.o(.data) for .data
    acceleration.o(i.setAccelerationFilter) refers to acceleration.o(.bss) for .bss
    acceleration.o(i.setAccelerationTrims) refers to acceleration.o(.data) for .data
    gyro.o(i.gyroCalculateCalibratingCycles) refers to gyro.o(.bss) for .bss
    gyro.o(i.gyroInit) refers to rt_memclr_w.o(.text) for __aeabi_memclr4
    gyro.o(i.gyroInit) refers to accgyro_mpu.o(i.mpuDetect) for mpuDetect
    gyro.o(i.gyroInit) refers to accgyro_spi_mpu9250.o(i.mpu9250SpiGyroDetect) for mpu9250SpiGyroDetect
    gyro.o(i.gyroInit) refers to runtime_config.o(i.sensorSet) for sensorSet
    gyro.o(i.gyroInit) refers to gyro_sync.o(i.gyroSetSampleRate) for gyroSetSampleRate
    gyro.o(i.gyroInit) refers to gyro.o(i.gyroInitFilters) for gyroInitFilters
    gyro.o(i.gyroInit) refers to gyro.o(.data) for .data
    gyro.o(i.gyroInit) refers to gyro.o(.bss) for .bss
    gyro.o(i.gyroInit) refers to gyro.o(.constdata) for .constdata
    gyro.o(i.gyroInit) refers to accgyro_mpu.o(.data) for mpuReset
    gyro.o(i.gyroInit) refers to initialisation.o(.data) for detectedSensors
    gyro.o(i.gyroInitFilters) refers to filter.o(i.biquadFilterInitLPF) for biquadFilterInitLPF
    gyro.o(i.gyroInitFilters) refers to filter.o(i.pt1FilterInit) for pt1FilterInit
    gyro.o(i.gyroInitFilters) refers to filter.o(i.filterGetNotchQ) for filterGetNotchQ
    gyro.o(i.gyroInitFilters) refers to filter.o(i.biquadFilterInit) for biquadFilterInit
    gyro.o(i.gyroInitFilters) refers to filter.o(i.nullFilterApply) for nullFilterApply
    gyro.o(i.gyroInitFilters) refers to gyro.o(.data) for .data
    gyro.o(i.gyroInitFilters) refers to gyro.o(.bss) for .bss
    gyro.o(i.gyroInitFilters) refers to filter.o(i.biquadFilterApply) for biquadFilterApply
    gyro.o(i.gyroInitFilters) refers to filter.o(i.pt1FilterApply) for pt1FilterApply
    gyro.o(i.gyroSetCalibrationCycles) refers to gyro.o(i.gyroCalculateCalibratingCycles) for gyroCalculateCalibratingCycles
    gyro.o(i.gyroSetCalibrationCycles) refers to gyro.o(.data) for .data
    gyro.o(i.gyroUpdate) refers to dflt_clz.o(x$fpl$dflt) for __aeabi_i2d
    gyro.o(i.gyroUpdate) refers to ddiv.o(x$fpl$ddiv) for __aeabi_ddiv
    gyro.o(i.gyroUpdate) refers to daddsub_clz.o(x$fpl$dadd) for __aeabi_dadd
    gyro.o(i.gyroUpdate) refers to d2f.o(x$fpl$d2f) for __aeabi_d2f
    gyro.o(i.gyroUpdate) refers to boardalignment.o(i.alignSensors) for alignSensors
    gyro.o(i.gyroUpdate) refers to gyro.o(i.isGyroCalibrationComplete) for isGyroCalibrationComplete
    gyro.o(i.gyroUpdate) refers to led.o(i.LedSet) for LedSet
    gyro.o(i.gyroUpdate) refers to gyro.o(i.performGyroCalibration) for performGyroCalibration
    gyro.o(i.gyroUpdate) refers to lrintf.o(i.__hardfp_lrintf) for __hardfp_lrintf
    gyro.o(i.gyroUpdate) refers to gyro.o(.bss) for .bss
    gyro.o(i.gyroUpdate) refers to gyro.o(.data) for .data
    gyro.o(i.isGyroCalibrationComplete) refers to gyro.o(.data) for .data
    gyro.o(i.isOnFinalGyroCalibrationCycle) refers to gyro.o(.data) for .data
    gyro.o(i.performGyroCalibration) refers to gyro.o(i.gyroCalculateCalibratingCycles) for gyroCalculateCalibratingCycles
    gyro.o(i.performGyroCalibration) refers to maths.o(i.devClear) for devClear
    gyro.o(i.performGyroCalibration) refers to maths.o(i.devPush) for devPush
    gyro.o(i.performGyroCalibration) refers to gyro.o(i.isOnFinalGyroCalibrationCycle) for isOnFinalGyroCalibrationCycle
    gyro.o(i.performGyroCalibration) refers to maths.o(i.devStandardDeviation) for devStandardDeviation
    gyro.o(i.performGyroCalibration) refers to gyro.o(i.gyroSetCalibrationCycles) for gyroSetCalibrationCycles
    gyro.o(i.performGyroCalibration) refers to led.o(i.LedSet) for LedSet
    gyro.o(i.performGyroCalibration) refers to gyro.o(.data) for .data
    gyro.o(i.performGyroCalibration) refers to gyro.o(.bss) for .bss
    initialisation.o(i.sensorsAutodetect) refers to gyro.o(i.gyroInit) for gyroInit
    initialisation.o(i.sensorsAutodetect) refers to acceleration.o(i.accInit) for accInit
    initialisation.o(i.sensorsAutodetect) refers to feature.o(i.feature) for feature
    initialisation.o(i.sensorsAutodetect) refers to runtime_config.o(i.sensorSet) for sensorSet
    initialisation.o(i.sensorsAutodetect) refers to ultrasound.o(i.ultrasoundInit) for ultrasoundInit
    initialisation.o(i.sensorsAutodetect) refers to gyro.o(.bss) for gyro
    initialisation.o(i.sensorsAutodetect) refers to acceleration.o(.bss) for acc
    boardalignment.o(i.alignBoard) refers to lrintf.o(i.__hardfp_lrintf) for __hardfp_lrintf
    boardalignment.o(i.alignBoard) refers to boardalignment.o(.bss) for .bss
    boardalignment.o(i.alignSensors) refers to boardalignment.o(i.alignBoard) for alignBoard
    boardalignment.o(i.alignSensors) refers to boardalignment.o(.data) for .data
    boardalignment.o(i.initBoardAlignment) refers to maths.o(i.degreesToRadians) for degreesToRadians
    boardalignment.o(i.initBoardAlignment) refers to maths.o(i.buildRotationMatrix) for buildRotationMatrix
    boardalignment.o(i.initBoardAlignment) refers to boardalignment.o(.data) for .data
    boardalignment.o(i.initBoardAlignment) refers to boardalignment.o(.bss) for .bss
    ultrasound.o(i.ultrasound1Read) refers to ultrasound_hcsr04.o(i.hcsr04_ultrasound1_get_distance) for hcsr04_ultrasound1_get_distance
    ultrasound.o(i.ultrasound1Update) refers to ultrasound_hcsr04.o(i.hcsr04_ultrasound1_start_sequence) for hcsr04_ultrasound1_start_sequence
    ultrasound.o(i.ultrasound2Read) refers to ultrasound_hcsr04.o(i.hcsr04_ultrasound2_get_distance) for hcsr04_ultrasound2_get_distance
    ultrasound.o(i.ultrasound2Update) refers to ultrasound_hcsr04.o(i.hcsr04_ultrasound2_start_sequence) for hcsr04_ultrasound2_start_sequence
    ultrasound.o(i.ultrasound3Read) refers to ultrasound_hcsr04.o(i.hcsr04_ultrasound3_get_distance) for hcsr04_ultrasound3_get_distance
    ultrasound.o(i.ultrasound3Update) refers to ultrasound_hcsr04.o(i.hcsr04_ultrasound3_start_sequence) for hcsr04_ultrasound3_start_sequence
    ultrasound.o(i.ultrasound4Read) refers to ultrasound_hcsr04.o(i.hcsr04_ultrasound4_get_distance) for hcsr04_ultrasound4_get_distance
    ultrasound.o(i.ultrasound4Update) refers to ultrasound_hcsr04.o(i.hcsr04_ultrasound4_start_sequence) for hcsr04_ultrasound4_start_sequence
    ultrasound.o(i.ultrasound5Read) refers to ultrasound_hcsr04.o(i.hcsr04_ultrasound5_get_distance) for hcsr04_ultrasound5_get_distance
    ultrasound.o(i.ultrasound5Update) refers to ultrasound_hcsr04.o(i.hcsr04_ultrasound5_start_sequence) for hcsr04_ultrasound5_start_sequence
    ultrasound.o(i.ultrasound6Read) refers to ultrasound_hcsr04.o(i.hcsr04_ultrasound6_get_distance) for hcsr04_ultrasound6_get_distance
    ultrasound.o(i.ultrasound6Update) refers to ultrasound_hcsr04.o(i.hcsr04_ultrasound6_start_sequence) for hcsr04_ultrasound6_start_sequence
    ultrasound.o(i.ultrasoundInit) refers to ultrasound_hcsr04.o(i.hcsr04_init) for hcsr04_init
    ultrasound.o(i.ultrasoundInit) refers to runtime_config.o(i.sensorSet) for sensorSet
    ultrasound.o(i.ultrasoundInit) refers to ultrasound.o(.data) for .data
    filter.o(i.biquadFilterInit) refers to sinf.o(i.__hardfp_sinf) for __hardfp_sinf
    filter.o(i.biquadFilterInit) refers to cosf.o(i.__hardfp_cosf) for __hardfp_cosf
    filter.o(i.biquadFilterInitLPF) refers to sqrtf.o(i.__hardfp_sqrtf) for __hardfp_sqrtf
    filter.o(i.biquadFilterInitLPF) refers to filter.o(i.biquadFilterInit) for biquadFilterInit
    filter.o(i.filterGetNotchQ) refers to log2f.o(i.__hardfp_log2f) for __hardfp_log2f
    filter.o(i.filterGetNotchQ) refers to powf.o(i.__hardfp_powf) for __hardfp_powf
    filter.o(i.filterGetNotchQ) refers to sqrtf.o(i.__hardfp_sqrtf) for __hardfp_sqrtf
    maths.o(i.acosApprox) refers to sqrtf.o(i.__hardfp_sqrtf) for __hardfp_sqrtf
    maths.o(i.buildRotationMatrix) refers to maths.o(i.cosApprox) for cosApprox
    maths.o(i.buildRotationMatrix) refers to maths.o(i.sinApprox) for sinApprox
    maths.o(i.cosApprox) refers to maths.o(i.sinApprox) for sinApprox
    maths.o(i.devStandardDeviation) refers to maths.o(i.devVariance) for devVariance
    maths.o(i.devStandardDeviation) refers to sqrtf.o(i.__hardfp_sqrtf) for __hardfp_sqrtf
    pwm.o(i.pwmReadRawRC) refers to rx_pwm.o(i.pwmRead) for pwmRead
    pwm.o(i.rxPwmInit) refers to feature.o(i.feature) for feature
    pwm.o(i.rxPwmInit) refers to pwm.o(i.pwmReadRawRC) for pwmReadRawRC
    rx.o(i.calculateNonDataDrivenChannel) refers to rx.o(.data) for .data
    rx.o(i.calculateNonDataDrivenChannel) refers to rx.o(.bss) for .bss
    rx.o(i.calculateRxChannelsAndUpdateFailsafe) refers to rx.o(i.readRxChannelsApplyRanges) for readRxChannelsApplyRanges
    rx.o(i.calculateRxChannelsAndUpdateFailsafe) refers to rx.o(i.detectAndApplySignalLossBehaviour) for detectAndApplySignalLossBehaviour
    rx.o(i.calculateRxChannelsAndUpdateFailsafe) refers to rx.o(.data) for .data
    rx.o(i.detectAndApplySignalLossBehaviour) refers to feature.o(i.feature) for feature
    rx.o(i.detectAndApplySignalLossBehaviour) refers to rx.o(i.calculateNonDataDrivenChannel) for calculateNonDataDrivenChannel
    rx.o(i.detectAndApplySignalLossBehaviour) refers to rx.o(i.getRxChannelCount) for getRxChannelCount
    rx.o(i.detectAndApplySignalLossBehaviour) refers to rx.o(.data) for .data
    rx.o(i.detectAndApplySignalLossBehaviour) refers to rx.o(.bss) for .bss
    rx.o(i.getRxChannelCount) refers to rx.o(.data) for .data
    rx.o(i.getRxChannelCount) refers to rx.o(.bss) for .bss
    rx.o(i.parseRcChannels) refers to strchr.o(.text) for strchr
    rx.o(i.parseRcChannels) refers to rx.o(.constdata) for .constdata
    rx.o(i.readRxChannelsApplyRanges) refers to rx.o(i.getRxChannelCount) for getRxChannelCount
    rx.o(i.readRxChannelsApplyRanges) refers to maths.o(i.scaleRange) for scaleRange
    rx.o(i.readRxChannelsApplyRanges) refers to rx.o(.data) for .data
    rx.o(i.readRxChannelsApplyRanges) refers to rx.o(.bss) for .bss
    rx.o(i.rxGetRefreshRate) refers to rx.o(.bss) for .bss
    rx.o(i.rxInit) refers to system.o(i.millis) for millis
    rx.o(i.rxInit) refers to rx.o(.data) for .data
    rx.o(i.rxInit) refers to rx.o(i.nullReadRawRC) for nullReadRawRC
    rx.o(i.rxInit) refers to rx.o(.bss) for .bss
    rx.o(i.rxInit) refers to rx.o(i.nullFrameStatus) for nullFrameStatus
    rx.o(i.rxIsReceivingSignal) refers to rx.o(.data) for .data
    rx.o(i.rxUpdateCheck) refers to rx.o(.data) for .data
    rx.o(i.rxUpdateCheck) refers to rx.o(.bss) for .bss
    rx.o(i.useRxConfig) refers to rx.o(.data) for .data
    scheduler.o(i.getTaskDeltaTime) refers to fc_tasks.o(.data) for cfTasks
    scheduler.o(i.getTaskDeltaTime) refers to scheduler.o(.data) for .data
    scheduler.o(i.queueAdd) refers to scheduler.o(i.queueContains) for queueContains
    scheduler.o(i.queueAdd) refers to rt_memmove_w.o(.text) for __aeabi_memmove4
    scheduler.o(i.queueAdd) refers to scheduler.o(.data) for .data
    scheduler.o(i.queueAdd) refers to scheduler.o(.bss) for .bss
    scheduler.o(i.queueClear) refers to rt_memclr_w.o(.text) for __aeabi_memclr4
    scheduler.o(i.queueClear) refers to scheduler.o(.bss) for .bss
    scheduler.o(i.queueClear) refers to scheduler.o(.data) for .data
    scheduler.o(i.queueContains) refers to scheduler.o(.bss) for .bss
    scheduler.o(i.queueContains) refers to scheduler.o(.data) for .data
    scheduler.o(i.queueFirst) refers to scheduler.o(.data) for .data
    scheduler.o(i.queueFirst) refers to scheduler.o(.bss) for .bss
    scheduler.o(i.queueNext) refers to scheduler.o(.data) for .data
    scheduler.o(i.queueNext) refers to scheduler.o(.bss) for .bss
    scheduler.o(i.queueRemove) refers to rt_memmove_w.o(.text) for __aeabi_memmove4
    scheduler.o(i.queueRemove) refers to scheduler.o(.bss) for .bss
    scheduler.o(i.queueRemove) refers to scheduler.o(.data) for .data
    scheduler.o(i.rescheduleTask) refers to fc_tasks.o(.data) for cfTasks
    scheduler.o(i.rescheduleTask) refers to scheduler.o(.data) for .data
    scheduler.o(i.scheduler) refers to system.o(i.micros) for micros
    scheduler.o(i.scheduler) refers to scheduler.o(i.queueFirst) for queueFirst
    scheduler.o(i.scheduler) refers to scheduler.o(i.queueNext) for queueNext
    scheduler.o(i.scheduler) refers to scheduler.o(.data) for .data
    scheduler.o(i.schedulerInit) refers to scheduler.o(i.queueClear) for queueClear
    scheduler.o(i.schedulerInit) refers to scheduler.o(i.queueAdd) for queueAdd
    scheduler.o(i.schedulerInit) refers to scheduler.o(.data) for .data
    scheduler.o(i.schedulerInit) refers to fc_tasks.o(.data) for cfTasks
    scheduler.o(i.setTaskEnabled) refers to scheduler.o(i.queueAdd) for queueAdd
    scheduler.o(i.setTaskEnabled) refers to scheduler.o(i.queueRemove) for queueRemove
    scheduler.o(i.setTaskEnabled) refers to fc_tasks.o(.data) for cfTasks
    scheduler.o(i.setTaskEnabled) refers to scheduler.o(.data) for .data
    scheduler.o(i.taskSystem) refers to scheduler.o(.data) for .data
    __2printf.o(.text) refers to _printf_char_file.o(.text) for _printf_char_file
    __2printf.o(.text) refers to main.o(.data) for __stdout
    noretval__2printf.o(.text) refers to _printf_char_file.o(.text) for _printf_char_file
    noretval__2printf.o(.text) refers to main.o(.data) for __stdout
    __printf.o(.text) refers to _printf_percent.o(.ARM.Collect$$_printf_percent$$00000000) for _printf_percent
    _printf_str.o(.text) refers (Special) to _printf_char.o(.text) for _printf_cs_common
    _printf_dec.o(.text) refers to _printf_intcommon.o(.text) for _printf_int_common
    __printf_flags.o(.text) refers to _printf_percent.o(.ARM.Collect$$_printf_percent$$00000000) for _printf_percent
    __printf_flags.o(.text) refers to __printf_flags.o(.constdata) for .constdata
    __printf_ss.o(.text) refers to _printf_percent.o(.ARM.Collect$$_printf_percent$$00000000) for _printf_percent
    __printf_flags_ss.o(.text) refers to _printf_percent.o(.ARM.Collect$$_printf_percent$$00000000) for _printf_percent
    __printf_flags_ss.o(.text) refers to __printf_flags_ss.o(.constdata) for .constdata
    __printf_wp.o(.text) refers to __printf_wp.o(i._is_digit) for _is_digit
    __printf_wp.o(.text) refers to _printf_percent.o(.ARM.Collect$$_printf_percent$$00000000) for _printf_percent
    __printf_flags_wp.o(.text) refers to __printf_wp.o(i._is_digit) for _is_digit
    __printf_flags_wp.o(.text) refers to _printf_percent.o(.ARM.Collect$$_printf_percent$$00000000) for _printf_percent
    __printf_flags_wp.o(.text) refers to __printf_flags_wp.o(.constdata) for .constdata
    __printf_ss_wp.o(.text) refers to __printf_wp.o(i._is_digit) for _is_digit
    __printf_ss_wp.o(.text) refers to _printf_percent.o(.ARM.Collect$$_printf_percent$$00000000) for _printf_percent
    __printf_flags_ss_wp.o(.text) refers to __printf_wp.o(i._is_digit) for _is_digit
    __printf_flags_ss_wp.o(.text) refers to _printf_percent.o(.ARM.Collect$$_printf_percent$$00000000) for _printf_percent
    __printf_flags_ss_wp.o(.text) refers to __printf_flags_ss_wp.o(.constdata) for .constdata
    _printf_s.o(.ARM.Collect$$_printf_percent$$00000014) refers (Weak) to _printf_char.o(.text) for _printf_string
    _printf_d.o(.ARM.Collect$$_printf_percent$$00000009) refers (Weak) to _printf_dec.o(.text) for _printf_int_dec
    _printf_u.o(.ARM.Collect$$_printf_percent$$0000000A) refers (Weak) to _printf_dec.o(.text) for _printf_int_dec
    _printf_percent.o(.ARM.Collect$$_printf_percent$$00000000) refers (Special) to _printf_percent_end.o(.ARM.Collect$$_printf_percent$$00000017) for _printf_percent_end
    strncasecmp.o(.text) refers to tolower.o(.text) for tolower
    rt_memmove_w.o(.text) refers to rt_memcpy_w.o(.text) for __aeabi_memcpy4
    aeabi_memset.o(.text) refers to rt_memclr.o(.text) for _memset
    rt_memclr.o(.text) refers to rt_memclr_w.o(.text) for _memset_w
    strncpy.o(.text) refers to rt_memclr.o(.text) for __aeabi_memclr
    __main.o(!!!main) refers to __rtentry.o(.ARM.Collect$$rtentry$$00000000) for __rt_entry
    d2f.o(x$fpl$d2f) refers (Special) to usenofp.o(x$fpl$usenofp) for __I$use$fp
    d2f.o(x$fpl$d2f) refers to fretinf.o(x$fpl$fretinf) for __fpl_fretinf
    d2f.o(x$fpl$d2f) refers to dnaninf.o(x$fpl$dnaninf) for __fpl_dnaninf
    daddsub_clz.o(x$fpl$dadd) refers (Special) to usenofp.o(x$fpl$usenofp) for __I$use$fp
    daddsub_clz.o(x$fpl$dadd) refers to daddsub_clz.o(x$fpl$dsub) for _dsub1
    daddsub_clz.o(x$fpl$dadd) refers to dretinf.o(x$fpl$dretinf) for __fpl_dretinf
    daddsub_clz.o(x$fpl$dadd) refers to dnaninf.o(x$fpl$dnaninf) for __fpl_dnaninf
    daddsub_clz.o(x$fpl$drsb) refers (Special) to usenofp.o(x$fpl$usenofp) for __I$use$fp
    daddsub_clz.o(x$fpl$drsb) refers to daddsub_clz.o(x$fpl$dadd) for _dadd1
    daddsub_clz.o(x$fpl$drsb) refers to daddsub_clz.o(x$fpl$dsub) for _dsub1
    daddsub_clz.o(x$fpl$dsub) refers (Special) to usenofp.o(x$fpl$usenofp) for __I$use$fp
    daddsub_clz.o(x$fpl$dsub) refers to daddsub_clz.o(x$fpl$dadd) for _dadd1
    daddsub_clz.o(x$fpl$dsub) refers to dnaninf.o(x$fpl$dnaninf) for __fpl_dnaninf
    ddiv.o(x$fpl$drdiv) refers (Special) to usenofp.o(x$fpl$usenofp) for __I$use$fp
    ddiv.o(x$fpl$drdiv) refers to ddiv.o(x$fpl$ddiv) for ddiv_entry
    ddiv.o(x$fpl$ddiv) refers (Special) to usenofp.o(x$fpl$usenofp) for __I$use$fp
    ddiv.o(x$fpl$ddiv) refers to dretinf.o(x$fpl$dretinf) for __fpl_dretinf
    ddiv.o(x$fpl$ddiv) refers to dnaninf.o(x$fpl$dnaninf) for __fpl_dnaninf
    dfix.o(x$fpl$dfix) refers (Special) to usenofp.o(x$fpl$usenofp) for __I$use$fp
    dfix.o(x$fpl$dfix) refers to dnaninf.o(x$fpl$dnaninf) for __fpl_dnaninf
    dfix.o(x$fpl$dfixr) refers (Special) to usenofp.o(x$fpl$usenofp) for __I$use$fp
    dfix.o(x$fpl$dfixr) refers to dnaninf.o(x$fpl$dnaninf) for __fpl_dnaninf
    dflt_clz.o(x$fpl$dfltu) refers (Special) to usenofp.o(x$fpl$usenofp) for __I$use$fp
    dflt_clz.o(x$fpl$dflt) refers (Special) to usenofp.o(x$fpl$usenofp) for __I$use$fp
    dflt_clz.o(x$fpl$dfltn) refers (Special) to usenofp.o(x$fpl$usenofp) for __I$use$fp
    dmul.o(x$fpl$dmul) refers (Special) to usenofp.o(x$fpl$usenofp) for __I$use$fp
    dmul.o(x$fpl$dmul) refers to dretinf.o(x$fpl$dretinf) for __fpl_dretinf
    dmul.o(x$fpl$dmul) refers to dnaninf.o(x$fpl$dnaninf) for __fpl_dnaninf
    f2d.o(x$fpl$f2d) refers (Special) to usenofp.o(x$fpl$usenofp) for __I$use$fp
    f2d.o(x$fpl$f2d) refers to fnaninf.o(x$fpl$fnaninf) for __fpl_fnaninf
    f2d.o(x$fpl$f2d) refers to dretinf.o(x$fpl$dretinf) for __fpl_dretinf
    acosf.o(i.__hardfp_acosf) refers (Special) to usenofp.o(x$fpl$usenofp) for __I$use$fp
    acosf.o(i.__hardfp_acosf) refers to sqrtf.o(i.sqrtf) for sqrtf
    acosf.o(i.__hardfp_acosf) refers to funder.o(i.__mathlib_flt_infnan) for __mathlib_flt_infnan
    acosf.o(i.__hardfp_acosf) refers to _rserrno.o(.text) for __set_errno
    acosf.o(i.__hardfp_acosf) refers to funder.o(i.__mathlib_flt_invalid) for __mathlib_flt_invalid
    acosf.o(i.__softfp_acosf) refers (Special) to usenofp.o(x$fpl$usenofp) for __I$use$fp
    acosf.o(i.__softfp_acosf) refers to acosf.o(i.__hardfp_acosf) for __hardfp_acosf
    acosf.o(i.acosf) refers (Special) to usenofp.o(x$fpl$usenofp) for __I$use$fp
    acosf.o(i.acosf) refers to acosf.o(i.__hardfp_acosf) for __hardfp_acosf
    acosf_x.o(i.____hardfp_acosf$lsc) refers (Special) to usenofp.o(x$fpl$usenofp) for __I$use$fp
    acosf_x.o(i.____hardfp_acosf$lsc) refers to sqrtf.o(i.sqrtf) for sqrtf
    acosf_x.o(i.____hardfp_acosf$lsc) refers to funder.o(i.__mathlib_flt_infnan) for __mathlib_flt_infnan
    acosf_x.o(i.____hardfp_acosf$lsc) refers to _rserrno.o(.text) for __set_errno
    acosf_x.o(i.____softfp_acosf$lsc) refers (Special) to usenofp.o(x$fpl$usenofp) for __I$use$fp
    acosf_x.o(i.____softfp_acosf$lsc) refers to acosf_x.o(i.____hardfp_acosf$lsc) for ____hardfp_acosf$lsc
    acosf_x.o(i.__acosf$lsc) refers (Special) to usenofp.o(x$fpl$usenofp) for __I$use$fp
    acosf_x.o(i.__acosf$lsc) refers to acosf_x.o(i.____hardfp_acosf$lsc) for ____hardfp_acosf$lsc
    atan2f.o(i.__hardfp_atan2f) refers (Special) to usenofp.o(x$fpl$usenofp) for __I$use$fp
    atan2f.o(i.__hardfp_atan2f) refers to fpclassifyf.o(i.__ARM_fpclassifyf) for __ARM_fpclassifyf
    atan2f.o(i.__hardfp_atan2f) refers to funder.o(i.__mathlib_flt_underflow) for __mathlib_flt_underflow
    atan2f.o(i.__hardfp_atan2f) refers to funder.o(i.__mathlib_flt_infnan2) for __mathlib_flt_infnan2
    atan2f.o(i.__softfp_atan2f) refers (Special) to usenofp.o(x$fpl$usenofp) for __I$use$fp
    atan2f.o(i.__softfp_atan2f) refers to atan2f.o(i.__hardfp_atan2f) for __hardfp_atan2f
    atan2f.o(i.atan2f) refers (Special) to usenofp.o(x$fpl$usenofp) for __I$use$fp
    atan2f.o(i.atan2f) refers to atan2f.o(i.__hardfp_atan2f) for __hardfp_atan2f
    atan2f_x.o(i.____hardfp_atan2f$lsc) refers (Special) to usenofp.o(x$fpl$usenofp) for __I$use$fp
    atan2f_x.o(i.____hardfp_atan2f$lsc) refers to funder.o(i.__mathlib_flt_infnan2) for __mathlib_flt_infnan2
    atan2f_x.o(i.____hardfp_atan2f$lsc) refers to _rserrno.o(.text) for __set_errno
    atan2f_x.o(i.____softfp_atan2f$lsc) refers (Special) to usenofp.o(x$fpl$usenofp) for __I$use$fp
    atan2f_x.o(i.____softfp_atan2f$lsc) refers to atan2f_x.o(i.____hardfp_atan2f$lsc) for ____hardfp_atan2f$lsc
    atan2f_x.o(i.__atan2f$lsc) refers (Special) to usenofp.o(x$fpl$usenofp) for __I$use$fp
    atan2f_x.o(i.__atan2f$lsc) refers to atan2f_x.o(i.____hardfp_atan2f$lsc) for ____hardfp_atan2f$lsc
    cosf.o(i.__hardfp_cosf) refers (Special) to usenofp.o(x$fpl$usenofp) for __I$use$fp
    cosf.o(i.__hardfp_cosf) refers to rredf.o(i.__mathlib_rredf2) for __mathlib_rredf2
    cosf.o(i.__hardfp_cosf) refers to _rserrno.o(.text) for __set_errno
    cosf.o(i.__hardfp_cosf) refers to funder.o(i.__mathlib_flt_invalid) for __mathlib_flt_invalid
    cosf.o(i.__hardfp_cosf) refers to funder.o(i.__mathlib_flt_infnan) for __mathlib_flt_infnan
    cosf.o(i.__softfp_cosf) refers (Special) to usenofp.o(x$fpl$usenofp) for __I$use$fp
    cosf.o(i.__softfp_cosf) refers to cosf.o(i.__hardfp_cosf) for __hardfp_cosf
    cosf.o(i.cosf) refers (Special) to usenofp.o(x$fpl$usenofp) for __I$use$fp
    cosf.o(i.cosf) refers to cosf.o(i.__hardfp_cosf) for __hardfp_cosf
    cosf_x.o(i.____hardfp_cosf$lsc) refers (Special) to usenofp.o(x$fpl$usenofp) for __I$use$fp
    cosf_x.o(i.____hardfp_cosf$lsc) refers to rredf.o(i.__mathlib_rredf2) for __mathlib_rredf2
    cosf_x.o(i.____hardfp_cosf$lsc) refers to _rserrno.o(.text) for __set_errno
    cosf_x.o(i.____hardfp_cosf$lsc) refers to funder.o(i.__mathlib_flt_infnan) for __mathlib_flt_infnan
    cosf_x.o(i.____softfp_cosf$lsc) refers (Special) to usenofp.o(x$fpl$usenofp) for __I$use$fp
    cosf_x.o(i.____softfp_cosf$lsc) refers to cosf_x.o(i.____hardfp_cosf$lsc) for ____hardfp_cosf$lsc
    cosf_x.o(i.__cosf$lsc) refers (Special) to usenofp.o(x$fpl$usenofp) for __I$use$fp
    cosf_x.o(i.__cosf$lsc) refers to cosf_x.o(i.____hardfp_cosf$lsc) for ____hardfp_cosf$lsc
    log2f.o(i.__hardfp_log2f) refers (Special) to usenofp.o(x$fpl$usenofp) for __I$use$fp
    log2f.o(i.__hardfp_log2f) refers to funder.o(i.__mathlib_flt_infnan) for __mathlib_flt_infnan
    log2f.o(i.__hardfp_log2f) refers to _rserrno.o(.text) for __set_errno
    log2f.o(i.__hardfp_log2f) refers to funder.o(i.__mathlib_flt_invalid) for __mathlib_flt_invalid
    log2f.o(i.__hardfp_log2f) refers to funder.o(i.__mathlib_flt_divzero) for __mathlib_flt_divzero
    log2f.o(i.__hardfp_log2f) refers to log2f.o(.constdata) for .constdata
    log2f.o(i.__softfp_log2f) refers (Special) to usenofp.o(x$fpl$usenofp) for __I$use$fp
    log2f.o(i.__softfp_log2f) refers to log2f.o(i.__hardfp_log2f) for __hardfp_log2f
    log2f.o(i.log2f) refers (Special) to usenofp.o(x$fpl$usenofp) for __I$use$fp
    log2f.o(i.log2f) refers to log2f.o(i.__hardfp_log2f) for __hardfp_log2f
    log2f.o(.constdata) refers (Special) to usenofp.o(x$fpl$usenofp) for __I$use$fp
    log2f_x.o(i.____hardfp_log2f$lsc) refers (Special) to usenofp.o(x$fpl$usenofp) for __I$use$fp
    log2f_x.o(i.____hardfp_log2f$lsc) refers to funder.o(i.__mathlib_flt_infnan) for __mathlib_flt_infnan
    log2f_x.o(i.____hardfp_log2f$lsc) refers to _rserrno.o(.text) for __set_errno
    log2f_x.o(i.____hardfp_log2f$lsc) refers to log2f_x.o(.constdata) for .constdata
    log2f_x.o(i.____softfp_log2f$lsc) refers (Special) to usenofp.o(x$fpl$usenofp) for __I$use$fp
    log2f_x.o(i.____softfp_log2f$lsc) refers to log2f_x.o(i.____hardfp_log2f$lsc) for ____hardfp_log2f$lsc
    log2f_x.o(i.__log2f$lsc) refers (Special) to usenofp.o(x$fpl$usenofp) for __I$use$fp
    log2f_x.o(i.__log2f$lsc) refers to log2f_x.o(i.____hardfp_log2f$lsc) for ____hardfp_log2f$lsc
    log2f_x.o(.constdata) refers (Special) to usenofp.o(x$fpl$usenofp) for __I$use$fp
    powf.o(i.__hardfp_powf) refers (Special) to usenofp.o(x$fpl$usenofp) for __I$use$fp
    powf.o(i.__hardfp_powf) refers to _rserrno.o(.text) for __set_errno
    powf.o(i.__hardfp_powf) refers to funder.o(i.__mathlib_flt_overflow) for __mathlib_flt_overflow
    powf.o(i.__hardfp_powf) refers to fpclassifyf.o(i.__ARM_fpclassifyf) for __ARM_fpclassifyf
    powf.o(i.__hardfp_powf) refers to funder.o(i.__mathlib_flt_underflow) for __mathlib_flt_underflow
    powf.o(i.__hardfp_powf) refers to funder.o(i.__mathlib_flt_invalid) for __mathlib_flt_invalid
    powf.o(i.__hardfp_powf) refers to powf.o(.constdata) for .constdata
    powf.o(i.__hardfp_powf) refers to funder.o(i.__mathlib_flt_infnan2) for __mathlib_flt_infnan2
    powf.o(i.__hardfp_powf) refers to funder.o(i.__mathlib_flt_divzero) for __mathlib_flt_divzero
    powf.o(i.__softfp_powf) refers (Special) to usenofp.o(x$fpl$usenofp) for __I$use$fp
    powf.o(i.__softfp_powf) refers to powf.o(i.__hardfp_powf) for __hardfp_powf
    powf.o(i.powf) refers (Special) to usenofp.o(x$fpl$usenofp) for __I$use$fp
    powf.o(i.powf) refers to powf.o(i.__hardfp_powf) for __hardfp_powf
    powf.o(.constdata) refers (Special) to usenofp.o(x$fpl$usenofp) for __I$use$fp
    powf_x.o(i.____hardfp_powf$lsc) refers (Special) to usenofp.o(x$fpl$usenofp) for __I$use$fp
    powf_x.o(i.____hardfp_powf$lsc) refers to _rserrno.o(.text) for __set_errno
    powf_x.o(i.____hardfp_powf$lsc) refers to powf_x.o(.constdata) for .constdata
    powf_x.o(i.____hardfp_powf$lsc) refers to funder.o(i.__mathlib_flt_infnan2) for __mathlib_flt_infnan2
    powf_x.o(i.____softfp_powf$lsc) refers (Special) to usenofp.o(x$fpl$usenofp) for __I$use$fp
    powf_x.o(i.____softfp_powf$lsc) refers to powf_x.o(i.____hardfp_powf$lsc) for ____hardfp_powf$lsc
    powf_x.o(i.__powf$lsc) refers (Special) to usenofp.o(x$fpl$usenofp) for __I$use$fp
    powf_x.o(i.__powf$lsc) refers to powf_x.o(i.____hardfp_powf$lsc) for ____hardfp_powf$lsc
    powf_x.o(.constdata) refers (Special) to usenofp.o(x$fpl$usenofp) for __I$use$fp
    round.o(i.__hardfp_round) refers (Special) to usenofp.o(x$fpl$usenofp) for __I$use$fp
    round.o(i.__hardfp_round) refers to drnd.o(x$fpl$drnd) for _drnd
    round.o(i.__hardfp_round) refers to daddsub_clz.o(x$fpl$dsub) for __aeabi_dsub
    round.o(i.__hardfp_round) refers to dleqf.o(x$fpl$dleqf) for __aeabi_cdcmple
    round.o(i.__hardfp_round) refers to drleqf.o(x$fpl$drleqf) for __aeabi_cdrcmple
    round.o(i.__hardfp_round) refers to daddsub_clz.o(x$fpl$dadd) for __aeabi_dadd
    round.o(i.round) refers (Special) to usenofp.o(x$fpl$usenofp) for __I$use$fp
    round.o(i.round) refers to drnd.o(x$fpl$drnd) for _drnd
    round.o(i.round) refers to daddsub_clz.o(x$fpl$dsub) for __aeabi_dsub
    round.o(i.round) refers to dleqf.o(x$fpl$dleqf) for __aeabi_cdcmple
    round.o(i.round) refers to drleqf.o(x$fpl$drleqf) for __aeabi_cdrcmple
    round.o(i.round) refers to daddsub_clz.o(x$fpl$dadd) for __aeabi_dadd
    sinf.o(i.__hardfp_sinf) refers (Special) to usenofp.o(x$fpl$usenofp) for __I$use$fp
    sinf.o(i.__hardfp_sinf) refers to rredf.o(i.__mathlib_rredf2) for __mathlib_rredf2
    sinf.o(i.__hardfp_sinf) refers to fpclassifyf.o(i.__ARM_fpclassifyf) for __ARM_fpclassifyf
    sinf.o(i.__hardfp_sinf) refers to funder.o(i.__mathlib_flt_underflow) for __mathlib_flt_underflow
    sinf.o(i.__hardfp_sinf) refers to _rserrno.o(.text) for __set_errno
    sinf.o(i.__hardfp_sinf) refers to funder.o(i.__mathlib_flt_invalid) for __mathlib_flt_invalid
    sinf.o(i.__hardfp_sinf) refers to funder.o(i.__mathlib_flt_infnan) for __mathlib_flt_infnan
    sinf.o(i.__softfp_sinf) refers (Special) to usenofp.o(x$fpl$usenofp) for __I$use$fp
    sinf.o(i.__softfp_sinf) refers to sinf.o(i.__hardfp_sinf) for __hardfp_sinf
    sinf.o(i.sinf) refers (Special) to usenofp.o(x$fpl$usenofp) for __I$use$fp
    sinf.o(i.sinf) refers to sinf.o(i.__hardfp_sinf) for __hardfp_sinf
    sinf_x.o(i.____hardfp_sinf$lsc) refers (Special) to usenofp.o(x$fpl$usenofp) for __I$use$fp
    sinf_x.o(i.____hardfp_sinf$lsc) refers to rredf.o(i.__mathlib_rredf2) for __mathlib_rredf2
    sinf_x.o(i.____hardfp_sinf$lsc) refers to _rserrno.o(.text) for __set_errno
    sinf_x.o(i.____hardfp_sinf$lsc) refers to funder.o(i.__mathlib_flt_infnan) for __mathlib_flt_infnan
    sinf_x.o(i.____softfp_sinf$lsc) refers (Special) to usenofp.o(x$fpl$usenofp) for __I$use$fp
    sinf_x.o(i.____softfp_sinf$lsc) refers to sinf_x.o(i.____hardfp_sinf$lsc) for ____hardfp_sinf$lsc
    sinf_x.o(i.__sinf$lsc) refers (Special) to usenofp.o(x$fpl$usenofp) for __I$use$fp
    sinf_x.o(i.__sinf$lsc) refers to sinf_x.o(i.____hardfp_sinf$lsc) for ____hardfp_sinf$lsc
    sqrtf.o(i.__hardfp_sqrtf) refers (Special) to usenofp.o(x$fpl$usenofp) for __I$use$fp
    sqrtf.o(i.__hardfp_sqrtf) refers to _rserrno.o(.text) for __set_errno
    sqrtf.o(i.__softfp_sqrtf) refers (Special) to usenofp.o(x$fpl$usenofp) for __I$use$fp
    sqrtf.o(i.__softfp_sqrtf) refers to _rserrno.o(.text) for __set_errno
    sqrtf.o(i.sqrtf) refers (Special) to usenofp.o(x$fpl$usenofp) for __I$use$fp
    sqrtf.o(i.sqrtf) refers to _rserrno.o(.text) for __set_errno
    sqrtf_x.o(i.____hardfp_sqrtf$lsc) refers (Special) to usenofp.o(x$fpl$usenofp) for __I$use$fp
    sqrtf_x.o(i.____hardfp_sqrtf$lsc) refers to _rserrno.o(.text) for __set_errno
    sqrtf_x.o(i.____softfp_sqrtf$lsc) refers (Special) to usenofp.o(x$fpl$usenofp) for __I$use$fp
    sqrtf_x.o(i.____softfp_sqrtf$lsc) refers to _rserrno.o(.text) for __set_errno
    sqrtf_x.o(i.__sqrtf$lsc) refers (Special) to usenofp.o(x$fpl$usenofp) for __I$use$fp
    sqrtf_x.o(i.__sqrtf$lsc) refers to _rserrno.o(.text) for __set_errno
    lrintf.o(i.__hardfp_lrintf) refers (Special) to usenofp.o(x$fpl$usenofp) for __I$use$fp
    lrintf.o(i.__hardfp_lrintf) refers to ffix.o(x$fpl$ffixr) for _ffix_r
    lrintf.o(i.__hardfp_lrintf) refers to frnd.o(x$fpl$frnd) for _frnd
    lrintf.o(i.__hardfp_lrintf) refers to _rserrno.o(.text) for __set_errno
    lrintf.o(i.lrintf) refers (Special) to usenofp.o(x$fpl$usenofp) for __I$use$fp
    lrintf.o(i.lrintf) refers to ffix.o(x$fpl$ffixr) for _ffix_r
    lrintf.o(i.lrintf) refers to frnd.o(x$fpl$frnd) for _frnd
    lrintf.o(i.lrintf) refers to _rserrno.o(.text) for __set_errno
    lrintf_x.o(i.____hardfp_lrintf$lsc) refers (Special) to usenofp.o(x$fpl$usenofp) for __I$use$fp
    lrintf_x.o(i.____hardfp_lrintf$lsc) refers to ffix.o(x$fpl$ffixr) for _ffix_r
    lrintf_x.o(i.__lrintf$lsc) refers (Special) to usenofp.o(x$fpl$usenofp) for __I$use$fp
    lrintf_x.o(i.__lrintf$lsc) refers to ffix.o(x$fpl$ffixr) for _ffix_r
    __rtentry.o(.ARM.Collect$$rtentry$$00000000) refers (Special) to __rtentry2.o(.ARM.Collect$$rtentry$$0000000A) for __rt_entry_li
    __rtentry.o(.ARM.Collect$$rtentry$$00000000) refers (Special) to __rtentry2.o(.ARM.Collect$$rtentry$$0000000D) for __rt_entry_main
    __rtentry.o(.ARM.Collect$$rtentry$$00000000) refers (Special) to __rtentry2.o(.ARM.Collect$$rtentry$$0000000C) for __rt_entry_postli_1
    __rtentry.o(.ARM.Collect$$rtentry$$00000000) refers (Special) to __rtentry2.o(.ARM.Collect$$rtentry$$00000009) for __rt_entry_postsh_1
    __rtentry.o(.ARM.Collect$$rtentry$$00000000) refers (Special) to __rtentry2.o(.ARM.Collect$$rtentry$$00000002) for __rt_entry_presh_1
    __rtentry.o(.ARM.Collect$$rtentry$$00000000) refers (Special) to __rtentry4.o(.ARM.Collect$$rtentry$$00000004) for __rt_entry_sh
    _rserrno.o(.text) refers to rt_errno_addr_intlibspace.o(.text) for __aeabi_errno_addr
    tolower.o(.text) refers to rt_ctype_table.o(.text) for __rt_ctype_table
    _printf_char.o(.text) refers (Weak) to _printf_str.o(.text) for _printf_str
    _printf_char_file.o(.text) refers to _printf_char_common.o(.text) for _printf_char_common
    _printf_char_file.o(.text) refers to ferror.o(.text) for ferror
    _printf_char_file.o(.text) refers to main.o(i.fputc) for fputc
    dleqf.o(x$fpl$dleqf) refers (Special) to usenofp.o(x$fpl$usenofp) for __I$use$fp
    dleqf.o(x$fpl$dleqf) refers to dnaninf.o(x$fpl$dnaninf) for __fpl_dnaninf
    dleqf.o(x$fpl$dleqf) refers to dcmpi.o(x$fpl$dcmpinf) for __fpl_dcmp_Inf
    dnaninf.o(x$fpl$dnaninf) refers (Special) to usenofp.o(x$fpl$usenofp) for __I$use$fp
    dretinf.o(x$fpl$dretinf) refers (Special) to usenofp.o(x$fpl$usenofp) for __I$use$fp
    drleqf.o(x$fpl$drleqf) refers (Special) to usenofp.o(x$fpl$usenofp) for __I$use$fp
    drleqf.o(x$fpl$drleqf) refers to dleqf.o(x$fpl$dleqf) for __fpl_dcmple_InfNaN
    drnd.o(x$fpl$drnd) refers (Special) to usenofp.o(x$fpl$usenofp) for __I$use$fp
    drnd.o(x$fpl$drnd) refers to dnaninf.o(x$fpl$dnaninf) for __fpl_dnaninf
    ffix.o(x$fpl$ffix) refers (Special) to usenofp.o(x$fpl$usenofp) for __I$use$fp
    ffix.o(x$fpl$ffixr) refers (Special) to usenofp.o(x$fpl$usenofp) for __I$use$fp
    fnaninf.o(x$fpl$fnaninf) refers (Special) to usenofp.o(x$fpl$usenofp) for __I$use$fp
    fretinf.o(x$fpl$fretinf) refers (Special) to usenofp.o(x$fpl$usenofp) for __I$use$fp
    frnd.o(x$fpl$frnd) refers (Special) to usenofp.o(x$fpl$usenofp) for __I$use$fp
    frnd.o(x$fpl$frnd) refers to fnaninf.o(x$fpl$fnaninf) for __fpl_fnaninf
    istatus.o(x$fpl$ieeestatus) refers (Special) to usenofp.o(x$fpl$usenofp) for __I$use$fp
    fpclassifyf.o(i.__ARM_fpclassifyf) refers (Special) to usenofp.o(x$fpl$usenofp) for __I$use$fp
    rredf.o(i.__mathlib_rredf2) refers (Special) to usenofp.o(x$fpl$usenofp) for __I$use$fp
    rredf.o(i.__mathlib_rredf2) refers to rredf.o(.constdata) for .constdata
    rredf.o(.constdata) refers (Special) to usenofp.o(x$fpl$usenofp) for __I$use$fp
    __rtentry2.o(.ARM.Collect$$rtentry$$00000008) refers to boardinit2.o(.text) for _platform_post_stackheap_init
    __rtentry2.o(.ARM.Collect$$rtentry$$0000000A) refers to libinit.o(.ARM.Collect$$libinit$$00000000) for __rt_lib_init
    __rtentry2.o(.ARM.Collect$$rtentry$$0000000B) refers to boardinit3.o(.text) for _platform_post_lib_init
    __rtentry2.o(.ARM.Collect$$rtentry$$0000000D) refers to main.o(i.main) for main
    __rtentry2.o(.ARM.Collect$$rtentry$$0000000D) refers to exit.o(.text) for exit
    __rtentry2.o(.ARM.exidx) refers to __rtentry2.o(.ARM.Collect$$rtentry$$00000001) for .ARM.Collect$$rtentry$$00000001
    __rtentry2.o(.ARM.exidx) refers to __rtentry2.o(.ARM.Collect$$rtentry$$00000008) for .ARM.Collect$$rtentry$$00000008
    __rtentry2.o(.ARM.exidx) refers to __rtentry2.o(.ARM.Collect$$rtentry$$0000000A) for .ARM.Collect$$rtentry$$0000000A
    __rtentry2.o(.ARM.exidx) refers to __rtentry2.o(.ARM.Collect$$rtentry$$0000000B) for .ARM.Collect$$rtentry$$0000000B
    __rtentry2.o(.ARM.exidx) refers to __rtentry2.o(.ARM.Collect$$rtentry$$0000000D) for .ARM.Collect$$rtentry$$0000000D
    __rtentry4.o(.ARM.Collect$$rtentry$$00000004) refers to sys_stackheap_outer.o(.text) for __user_setup_stackheap
    __rtentry4.o(.ARM.exidx) refers to __rtentry4.o(.ARM.Collect$$rtentry$$00000004) for .ARM.Collect$$rtentry$$00000004
    rt_ctype_table.o(.text) refers to rt_locale_intlibspace.o(.text) for __rt_locale
    rt_ctype_table.o(.text) refers to lc_ctype_c.o(locale$$code) for _get_lc_ctype
    rt_errno_addr.o(.text) refers to rt_errno_addr.o(.bss) for __aeabi_errno_addr_data
    rt_errno_addr_intlibspace.o(.text) refers to libspace.o(.bss) for __libspace_start
    _printf_char_common.o(.text) refers to __printf.o(.text) for __printf
    dcmpi.o(x$fpl$dcmpinf) refers (Special) to usenofp.o(x$fpl$usenofp) for __I$use$fp
    libspace.o(.text) refers to libspace.o(.bss) for __libspace_start
    sys_stackheap_outer.o(.text) refers to libspace.o(.text) for __user_perproc_libspace
    sys_stackheap_outer.o(.text) refers to startup_stm32f407xx.o(.text) for __user_initial_stackheap
    rt_locale.o(.text) refers to rt_locale.o(.bss) for __rt_locale_data
    rt_locale_intlibspace.o(.text) refers to libspace.o(.bss) for __libspace_start
    lc_ctype_c.o(locale$$data) refers (Special) to libinit2.o(.ARM.Collect$$libinit$$00000012) for __rt_lib_init_lc_ctype_2
    lc_ctype_c.o(locale$$code) refers (Special) to libinit2.o(.ARM.Collect$$libinit$$00000012) for __rt_lib_init_lc_ctype_2
    lc_ctype_c.o(locale$$code) refers to strcmpv7m.o(.text) for strcmp
    lc_ctype_c.o(locale$$code) refers to lc_ctype_c.o(locale$$data) for __lcctype_c_name
    exit.o(.text) refers to rtexit.o(.ARM.Collect$$rtexit$$00000000) for __rt_exit
    libinit.o(.ARM.Collect$$libinit$$00000000) refers (Special) to libinit2.o(.ARM.Collect$$libinit$$0000002E) for __rt_lib_init_alloca_1
    libinit.o(.ARM.Collect$$libinit$$00000000) refers (Special) to libinit2.o(.ARM.Collect$$libinit$$0000002C) for __rt_lib_init_argv_1
    libinit.o(.ARM.Collect$$libinit$$00000000) refers (Special) to libinit2.o(.ARM.Collect$$libinit$$0000001B) for __rt_lib_init_atexit_1
    libinit.o(.ARM.Collect$$libinit$$00000000) refers (Special) to libinit2.o(.ARM.Collect$$libinit$$00000021) for __rt_lib_init_clock_1
    libinit.o(.ARM.Collect$$libinit$$00000000) refers (Special) to libinit2.o(.ARM.Collect$$libinit$$00000032) for __rt_lib_init_cpp_1
    libinit.o(.ARM.Collect$$libinit$$00000000) refers (Special) to libinit2.o(.ARM.Collect$$libinit$$00000030) for __rt_lib_init_exceptions_1
    libinit.o(.ARM.Collect$$libinit$$00000000) refers (Special) to libinit2.o(.ARM.Collect$$libinit$$00000001) for __rt_lib_init_fp_1
    libinit.o(.ARM.Collect$$libinit$$00000000) refers (Special) to libinit2.o(.ARM.Collect$$libinit$$0000001F) for __rt_lib_init_fp_trap_1
    libinit.o(.ARM.Collect$$libinit$$00000000) refers (Special) to libinit2.o(.ARM.Collect$$libinit$$00000023) for __rt_lib_init_getenv_1
    libinit.o(.ARM.Collect$$libinit$$00000000) refers (Special) to libinit2.o(.ARM.Collect$$libinit$$0000000A) for __rt_lib_init_heap_1
    libinit.o(.ARM.Collect$$libinit$$00000000) refers (Special) to libinit2.o(.ARM.Collect$$libinit$$00000011) for __rt_lib_init_lc_collate_1
    libinit.o(.ARM.Collect$$libinit$$00000000) refers (Special) to libinit2.o(.ARM.Collect$$libinit$$00000013) for __rt_lib_init_lc_ctype_1
    libinit.o(.ARM.Collect$$libinit$$00000000) refers (Special) to libinit2.o(.ARM.Collect$$libinit$$00000015) for __rt_lib_init_lc_monetary_1
    libinit.o(.ARM.Collect$$libinit$$00000000) refers (Special) to libinit2.o(.ARM.Collect$$libinit$$00000017) for __rt_lib_init_lc_numeric_1
    libinit.o(.ARM.Collect$$libinit$$00000000) refers (Special) to libinit2.o(.ARM.Collect$$libinit$$00000019) for __rt_lib_init_lc_time_1
    libinit.o(.ARM.Collect$$libinit$$00000000) refers (Special) to libinit2.o(.ARM.Collect$$libinit$$00000004) for __rt_lib_init_preinit_1
    libinit.o(.ARM.Collect$$libinit$$00000000) refers (Special) to libinit2.o(.ARM.Collect$$libinit$$0000000E) for __rt_lib_init_rand_1
    libinit.o(.ARM.Collect$$libinit$$00000000) refers (Special) to libinit2.o(.ARM.Collect$$libinit$$00000033) for __rt_lib_init_return
    libinit.o(.ARM.Collect$$libinit$$00000000) refers (Special) to libinit2.o(.ARM.Collect$$libinit$$0000001D) for __rt_lib_init_signal_1
    libinit.o(.ARM.Collect$$libinit$$00000000) refers (Special) to libinit2.o(.ARM.Collect$$libinit$$00000025) for __rt_lib_init_stdio_1
    libinit.o(.ARM.Collect$$libinit$$00000000) refers (Special) to libinit2.o(.ARM.Collect$$libinit$$0000000C) for __rt_lib_init_user_alloc_1
    rtexit.o(.ARM.Collect$$rtexit$$00000000) refers (Special) to rtexit2.o(.ARM.Collect$$rtexit$$00000004) for __rt_exit_exit
    rtexit.o(.ARM.Collect$$rtexit$$00000000) refers (Special) to rtexit2.o(.ARM.Collect$$rtexit$$00000003) for __rt_exit_ls
    rtexit.o(.ARM.Collect$$rtexit$$00000000) refers (Special) to rtexit2.o(.ARM.Collect$$rtexit$$00000002) for __rt_exit_prels_1
    rtexit.o(.ARM.exidx) refers (Special) to rtexit2.o(.ARM.Collect$$rtexit$$00000004) for __rt_exit_exit
    rtexit.o(.ARM.exidx) refers (Special) to rtexit2.o(.ARM.Collect$$rtexit$$00000003) for __rt_exit_ls
    rtexit.o(.ARM.exidx) refers (Special) to rtexit2.o(.ARM.Collect$$rtexit$$00000002) for __rt_exit_prels_1
    rtexit.o(.ARM.exidx) refers to rtexit.o(.ARM.Collect$$rtexit$$00000000) for .ARM.Collect$$rtexit$$00000000
    libinit2.o(.ARM.Collect$$libinit$$00000001) refers to fpinit.o(x$fpl$fpinit) for _fp_init
    libinit2.o(.ARM.Collect$$libinit$$0000000F) refers (Weak) to rt_locale_intlibspace.o(.text) for __rt_locale
    libinit2.o(.ARM.Collect$$libinit$$00000010) refers to libinit2.o(.ARM.Collect$$libinit$$0000000F) for .ARM.Collect$$libinit$$0000000F
    libinit2.o(.ARM.Collect$$libinit$$00000012) refers to libinit2.o(.ARM.Collect$$libinit$$0000000F) for .ARM.Collect$$libinit$$0000000F
    libinit2.o(.ARM.Collect$$libinit$$00000012) refers (Weak) to lc_ctype_c.o(locale$$code) for _get_lc_ctype
    libinit2.o(.ARM.Collect$$libinit$$00000014) refers to libinit2.o(.ARM.Collect$$libinit$$0000000F) for .ARM.Collect$$libinit$$0000000F
    libinit2.o(.ARM.Collect$$libinit$$00000016) refers to libinit2.o(.ARM.Collect$$libinit$$0000000F) for .ARM.Collect$$libinit$$0000000F
    libinit2.o(.ARM.Collect$$libinit$$00000018) refers to libinit2.o(.ARM.Collect$$libinit$$0000000F) for .ARM.Collect$$libinit$$0000000F
    libinit2.o(.ARM.Collect$$libinit$$00000026) refers to argv_veneer.o(.emb_text) for __ARM_argv_veneer
    libinit2.o(.ARM.Collect$$libinit$$00000027) refers to argv_veneer.o(.emb_text) for __ARM_argv_veneer
    rtexit2.o(.ARM.Collect$$rtexit$$00000003) refers to libshutdown.o(.ARM.Collect$$libshutdown$$00000000) for __rt_lib_shutdown
    rtexit2.o(.ARM.Collect$$rtexit$$00000004) refers to sys_exit.o(.text) for _sys_exit
    rtexit2.o(.ARM.exidx) refers to rtexit2.o(.ARM.Collect$$rtexit$$00000001) for .ARM.Collect$$rtexit$$00000001
    rtexit2.o(.ARM.exidx) refers to rtexit2.o(.ARM.Collect$$rtexit$$00000003) for .ARM.Collect$$rtexit$$00000003
    rtexit2.o(.ARM.exidx) refers to rtexit2.o(.ARM.Collect$$rtexit$$00000004) for .ARM.Collect$$rtexit$$00000004
    argv_veneer.o(.emb_text) refers to no_argv.o(.text) for __ARM_get_argv
    sys_exit.o(.text) refers (Special) to use_no_semi.o(.text) for __I$use$semihosting
    sys_exit.o(.text) refers (Special) to indicate_semi.o(.text) for __semihosting_library_function
    _get_argv_nomalloc.o(.text) refers (Special) to hrguard.o(.text) for __heap_region$guard
    _get_argv_nomalloc.o(.text) refers to defsig_rtmem_outer.o(.text) for __rt_SIGRTMEM
    _get_argv_nomalloc.o(.text) refers to sys_command.o(.text) for _sys_command_string
    libshutdown.o(.ARM.Collect$$libshutdown$$00000000) refers (Special) to libshutdown2.o(.ARM.Collect$$libshutdown$$00000002) for __rt_lib_shutdown_cpp_1
    libshutdown.o(.ARM.Collect$$libshutdown$$00000000) refers (Special) to libshutdown2.o(.ARM.Collect$$libshutdown$$00000007) for __rt_lib_shutdown_fp_trap_1
    libshutdown.o(.ARM.Collect$$libshutdown$$00000000) refers (Special) to libshutdown2.o(.ARM.Collect$$libshutdown$$0000000F) for __rt_lib_shutdown_heap_1
    libshutdown.o(.ARM.Collect$$libshutdown$$00000000) refers (Special) to libshutdown2.o(.ARM.Collect$$libshutdown$$00000010) for __rt_lib_shutdown_return
    libshutdown.o(.ARM.Collect$$libshutdown$$00000000) refers (Special) to libshutdown2.o(.ARM.Collect$$libshutdown$$0000000A) for __rt_lib_shutdown_signal_1
    libshutdown.o(.ARM.Collect$$libshutdown$$00000000) refers (Special) to libshutdown2.o(.ARM.Collect$$libshutdown$$00000004) for __rt_lib_shutdown_stdio_1
    libshutdown.o(.ARM.Collect$$libshutdown$$00000000) refers (Special) to libshutdown2.o(.ARM.Collect$$libshutdown$$0000000C) for __rt_lib_shutdown_user_alloc_1
    sys_command.o(.text) refers (Special) to use_no_semi.o(.text) for __I$use$semihosting
    sys_command.o(.text) refers (Special) to indicate_semi.o(.text) for __semihosting_library_function
    defsig_rtmem_outer.o(.text) refers to defsig_rtmem_inner.o(.text) for __rt_SIGRTMEM_inner
    defsig_rtmem_outer.o(.text) refers to defsig_exit.o(.text) for __sig_exit
    defsig_rtmem_formal.o(.text) refers to rt_raise.o(.text) for __rt_raise
    rt_raise.o(.text) refers to __raise.o(.text) for __raise
    rt_raise.o(.text) refers to sys_exit.o(.text) for _sys_exit
    defsig_exit.o(.text) refers to sys_exit.o(.text) for _sys_exit
    defsig_rtmem_inner.o(.text) refers to defsig_general.o(.text) for __default_signal_display
    __raise.o(.text) refers to defsig.o(CL$$defsig) for __default_signal_handler
    defsig_general.o(.text) refers to sys_wrch.o(.text) for _ttywrch
    sys_wrch.o(.text) refers (Special) to use_no_semi.o(.text) for __I$use$semihosting
    sys_wrch.o(.text) refers (Special) to indicate_semi.o(.text) for __semihosting_library_function
    defsig.o(CL$$defsig) refers to defsig_rtmem_inner.o(.text) for __rt_SIGRTMEM_inner
    defsig_abrt_inner.o(.text) refers to defsig_general.o(.text) for __default_signal_display
    defsig_fpe_inner.o(.text) refers to defsig_general.o(.text) for __default_signal_display
    defsig_rtred_inner.o(.text) refers to defsig_general.o(.text) for __default_signal_display
    defsig_stak_inner.o(.text) refers to defsig_general.o(.text) for __default_signal_display
    defsig_pvfn_inner.o(.text) refers to defsig_general.o(.text) for __default_signal_display
    defsig_cppl_inner.o(.text) refers to defsig_general.o(.text) for __default_signal_display
    defsig_segv_inner.o(.text) refers to defsig_general.o(.text) for __default_signal_display
    defsig_other.o(.text) refers to defsig_general.o(.text) for __default_signal_display


==============================================================================

Removing Unused input sections from the image.

    Removing misc.o(.rev16_text), (4 bytes).
    Removing misc.o(.revsh_text), (4 bytes).
    Removing misc.o(.rrx_text), (6 bytes).
    Removing misc.o(i.NVIC_SetVectorTable), (20 bytes).
    Removing misc.o(i.NVIC_SystemLPConfig), (24 bytes).
    Removing misc.o(i.SysTick_CLKSourceConfig), (24 bytes).
    Removing stm32f4xx_dma.o(.rev16_text), (4 bytes).
    Removing stm32f4xx_dma.o(.revsh_text), (4 bytes).
    Removing stm32f4xx_dma.o(.rrx_text), (6 bytes).
    Removing stm32f4xx_dma.o(i.DMA_ClearFlag), (44 bytes).
    Removing stm32f4xx_dma.o(i.DMA_ClearITPendingBit), (44 bytes).
    Removing stm32f4xx_dma.o(i.DMA_DoubleBufferModeCmd), (20 bytes).
    Removing stm32f4xx_dma.o(i.DMA_DoubleBufferModeConfig), (22 bytes).
    Removing stm32f4xx_dma.o(i.DMA_FlowControllerConfig), (20 bytes).
    Removing stm32f4xx_dma.o(i.DMA_GetCmdStatus), (14 bytes).
    Removing stm32f4xx_dma.o(i.DMA_GetCurrentMemoryTarget), (14 bytes).
    Removing stm32f4xx_dma.o(i.DMA_GetFIFOStatus), (8 bytes).
    Removing stm32f4xx_dma.o(i.DMA_GetFlagStatus), (52 bytes).
    Removing stm32f4xx_dma.o(i.DMA_GetITStatus), (84 bytes).
    Removing stm32f4xx_dma.o(i.DMA_PeriphIncOffsetSizeConfig), (20 bytes).
    Removing stm32f4xx_exti.o(.rev16_text), (4 bytes).
    Removing stm32f4xx_exti.o(.revsh_text), (4 bytes).
    Removing stm32f4xx_exti.o(.rrx_text), (6 bytes).
    Removing stm32f4xx_exti.o(i.EXTI_ClearFlag), (12 bytes).
    Removing stm32f4xx_exti.o(i.EXTI_ClearITPendingBit), (12 bytes).
    Removing stm32f4xx_exti.o(i.EXTI_DeInit), (36 bytes).
    Removing stm32f4xx_exti.o(i.EXTI_GenerateSWInterrupt), (16 bytes).
    Removing stm32f4xx_exti.o(i.EXTI_GetFlagStatus), (20 bytes).
    Removing stm32f4xx_exti.o(i.EXTI_GetITStatus), (20 bytes).
    Removing stm32f4xx_exti.o(i.EXTI_Init), (112 bytes).
    Removing stm32f4xx_exti.o(i.EXTI_StructInit), (14 bytes).
    Removing stm32f4xx_flash.o(.rev16_text), (4 bytes).
    Removing stm32f4xx_flash.o(.revsh_text), (4 bytes).
    Removing stm32f4xx_flash.o(.rrx_text), (6 bytes).
    Removing stm32f4xx_flash.o(i.FLASH_ClearFlag), (12 bytes).
    Removing stm32f4xx_flash.o(i.FLASH_DataCacheCmd), (28 bytes).
    Removing stm32f4xx_flash.o(i.FLASH_DataCacheReset), (16 bytes).
    Removing stm32f4xx_flash.o(i.FLASH_EraseAllBank1Sectors), (92 bytes).
    Removing stm32f4xx_flash.o(i.FLASH_EraseAllBank2Sectors), (92 bytes).
    Removing stm32f4xx_flash.o(i.FLASH_EraseAllSectors), (92 bytes).
    Removing stm32f4xx_flash.o(i.FLASH_EraseSector), (108 bytes).
    Removing stm32f4xx_flash.o(i.FLASH_GetFlagStatus), (20 bytes).
    Removing stm32f4xx_flash.o(i.FLASH_GetStatus), (60 bytes).
    Removing stm32f4xx_flash.o(i.FLASH_ITConfig), (24 bytes).
    Removing stm32f4xx_flash.o(i.FLASH_InstructionCacheCmd), (28 bytes).
    Removing stm32f4xx_flash.o(i.FLASH_InstructionCacheReset), (16 bytes).
    Removing stm32f4xx_flash.o(i.FLASH_Lock), (16 bytes).
    Removing stm32f4xx_flash.o(i.FLASH_OB_BORConfig), (24 bytes).
    Removing stm32f4xx_flash.o(i.FLASH_OB_BootConfig), (24 bytes).
    Removing stm32f4xx_flash.o(i.FLASH_OB_GetBOR), (16 bytes).
    Removing stm32f4xx_flash.o(i.FLASH_OB_GetPCROP), (12 bytes).
    Removing stm32f4xx_flash.o(i.FLASH_OB_GetPCROP1), (12 bytes).
    Removing stm32f4xx_flash.o(i.FLASH_OB_GetRDP), (20 bytes).
    Removing stm32f4xx_flash.o(i.FLASH_OB_GetUser), (16 bytes).
    Removing stm32f4xx_flash.o(i.FLASH_OB_GetWRP), (12 bytes).
    Removing stm32f4xx_flash.o(i.FLASH_OB_GetWRP1), (12 bytes).
    Removing stm32f4xx_flash.o(i.FLASH_OB_Launch), (20 bytes).
    Removing stm32f4xx_flash.o(i.FLASH_OB_Lock), (16 bytes).
    Removing stm32f4xx_flash.o(i.FLASH_OB_PCROP1Config), (36 bytes).
    Removing stm32f4xx_flash.o(i.FLASH_OB_PCROPConfig), (36 bytes).
    Removing stm32f4xx_flash.o(i.FLASH_OB_PCROPSelectionConfig), (20 bytes).
    Removing stm32f4xx_flash.o(i.FLASH_OB_RDPConfig), (24 bytes).
    Removing stm32f4xx_flash.o(i.FLASH_OB_Unlock), (36 bytes).
    Removing stm32f4xx_flash.o(i.FLASH_OB_UserConfig), (40 bytes).
    Removing stm32f4xx_flash.o(i.FLASH_OB_WRP1Config), (36 bytes).
    Removing stm32f4xx_flash.o(i.FLASH_OB_WRPConfig), (36 bytes).
    Removing stm32f4xx_flash.o(i.FLASH_PrefetchBufferCmd), (28 bytes).
    Removing stm32f4xx_flash.o(i.FLASH_ProgramByte), (56 bytes).
    Removing stm32f4xx_flash.o(i.FLASH_ProgramDoubleWord), (64 bytes).
    Removing stm32f4xx_flash.o(i.FLASH_ProgramHalfWord), (60 bytes).
    Removing stm32f4xx_flash.o(i.FLASH_ProgramWord), (60 bytes).
    Removing stm32f4xx_flash.o(i.FLASH_SetLatency), (12 bytes).
    Removing stm32f4xx_flash.o(i.FLASH_Unlock), (36 bytes).
    Removing stm32f4xx_flash.o(i.FLASH_WaitForLastOperation), (30 bytes).
    Removing stm32f4xx_gpio.o(.rev16_text), (4 bytes).
    Removing stm32f4xx_gpio.o(.revsh_text), (4 bytes).
    Removing stm32f4xx_gpio.o(.rrx_text), (6 bytes).
    Removing stm32f4xx_gpio.o(i.GPIO_DeInit), (260 bytes).
    Removing stm32f4xx_gpio.o(i.GPIO_PinLockConfig), (24 bytes).
    Removing stm32f4xx_gpio.o(i.GPIO_ReadInputData), (6 bytes).
    Removing stm32f4xx_gpio.o(i.GPIO_ReadInputDataBit), (14 bytes).
    Removing stm32f4xx_gpio.o(i.GPIO_ReadOutputData), (6 bytes).
    Removing stm32f4xx_gpio.o(i.GPIO_ReadOutputDataBit), (14 bytes).
    Removing stm32f4xx_gpio.o(i.GPIO_ResetBits), (6 bytes).
    Removing stm32f4xx_gpio.o(i.GPIO_SetBits), (4 bytes).
    Removing stm32f4xx_gpio.o(i.GPIO_ToggleBits), (8 bytes).
    Removing stm32f4xx_gpio.o(i.GPIO_Write), (4 bytes).
    Removing stm32f4xx_gpio.o(i.GPIO_WriteBit), (10 bytes).
    Removing stm32f4xx_pwr.o(.rev16_text), (4 bytes).
    Removing stm32f4xx_pwr.o(.revsh_text), (4 bytes).
    Removing stm32f4xx_pwr.o(.rrx_text), (6 bytes).
    Removing stm32f4xx_pwr.o(i.PWR_BackupAccessCmd), (12 bytes).
    Removing stm32f4xx_pwr.o(i.PWR_BackupRegulatorCmd), (12 bytes).
    Removing stm32f4xx_pwr.o(i.PWR_ClearFlag), (16 bytes).
    Removing stm32f4xx_pwr.o(i.PWR_DeInit), (24 bytes).
    Removing stm32f4xx_pwr.o(i.PWR_EnterSTANDBYMode), (32 bytes).
    Removing stm32f4xx_pwr.o(i.PWR_EnterSTOPMode), (56 bytes).
    Removing stm32f4xx_pwr.o(i.PWR_EnterUnderDriveSTOPMode), (56 bytes).
    Removing stm32f4xx_pwr.o(i.PWR_FlashPowerDownCmd), (12 bytes).
    Removing stm32f4xx_pwr.o(i.PWR_GetFlagStatus), (20 bytes).
    Removing stm32f4xx_pwr.o(i.PWR_MainRegulatorModeConfig), (20 bytes).
    Removing stm32f4xx_pwr.o(i.PWR_OverDriveCmd), (12 bytes).
    Removing stm32f4xx_pwr.o(i.PWR_OverDriveSWCmd), (12 bytes).
    Removing stm32f4xx_pwr.o(i.PWR_PVDCmd), (12 bytes).
    Removing stm32f4xx_pwr.o(i.PWR_PVDLevelConfig), (20 bytes).
    Removing stm32f4xx_pwr.o(i.PWR_UnderDriveCmd), (28 bytes).
    Removing stm32f4xx_pwr.o(i.PWR_WakeUpPinCmd), (12 bytes).
    Removing stm32f4xx_rcc.o(.rev16_text), (4 bytes).
    Removing stm32f4xx_rcc.o(.revsh_text), (4 bytes).
    Removing stm32f4xx_rcc.o(.rrx_text), (6 bytes).
    Removing stm32f4xx_rcc.o(i.RCC_AHB1PeriphClockLPModeCmd), (24 bytes).
    Removing stm32f4xx_rcc.o(i.RCC_AHB2PeriphClockLPModeCmd), (24 bytes).
    Removing stm32f4xx_rcc.o(i.RCC_AHB2PeriphResetCmd), (24 bytes).
    Removing stm32f4xx_rcc.o(i.RCC_AHB3PeriphClockCmd), (24 bytes).
    Removing stm32f4xx_rcc.o(i.RCC_AHB3PeriphClockLPModeCmd), (24 bytes).
    Removing stm32f4xx_rcc.o(i.RCC_AHB3PeriphResetCmd), (24 bytes).
    Removing stm32f4xx_rcc.o(i.RCC_APB1PeriphClockLPModeCmd), (24 bytes).
    Removing stm32f4xx_rcc.o(i.RCC_APB2PeriphClockLPModeCmd), (24 bytes).
    Removing stm32f4xx_rcc.o(i.RCC_AdjustHSICalibrationValue), (20 bytes).
    Removing stm32f4xx_rcc.o(i.RCC_BackupResetCmd), (12 bytes).
    Removing stm32f4xx_rcc.o(i.RCC_ClearITPendingBit), (12 bytes).
    Removing stm32f4xx_rcc.o(i.RCC_ClockSecuritySystemCmd), (12 bytes).
    Removing stm32f4xx_rcc.o(i.RCC_DeInit), (64 bytes).
    Removing stm32f4xx_rcc.o(i.RCC_GetFlagStatus), (52 bytes).
    Removing stm32f4xx_rcc.o(i.RCC_GetITStatus), (20 bytes).
    Removing stm32f4xx_rcc.o(i.RCC_GetSYSCLKSource), (16 bytes).
    Removing stm32f4xx_rcc.o(i.RCC_HCLKConfig), (20 bytes).
    Removing stm32f4xx_rcc.o(i.RCC_HSEConfig), (16 bytes).
    Removing stm32f4xx_rcc.o(i.RCC_HSICmd), (12 bytes).
    Removing stm32f4xx_rcc.o(i.RCC_I2SCLKConfig), (12 bytes).
    Removing stm32f4xx_rcc.o(i.RCC_ITConfig), (24 bytes).
    Removing stm32f4xx_rcc.o(i.RCC_LSEConfig), (28 bytes).
    Removing stm32f4xx_rcc.o(i.RCC_LSEModeConfig), (28 bytes).
    Removing stm32f4xx_rcc.o(i.RCC_LSICmd), (12 bytes).
    Removing stm32f4xx_rcc.o(i.RCC_LTDCCLKDivConfig), (20 bytes).
    Removing stm32f4xx_rcc.o(i.RCC_MCO1Config), (20 bytes).
    Removing stm32f4xx_rcc.o(i.RCC_MCO2Config), (20 bytes).
    Removing stm32f4xx_rcc.o(i.RCC_PCLK1Config), (20 bytes).
    Removing stm32f4xx_rcc.o(i.RCC_PCLK2Config), (20 bytes).
    Removing stm32f4xx_rcc.o(i.RCC_PLLCmd), (12 bytes).
    Removing stm32f4xx_rcc.o(i.RCC_PLLConfig), (40 bytes).
    Removing stm32f4xx_rcc.o(i.RCC_PLLI2SCmd), (12 bytes).
    Removing stm32f4xx_rcc.o(i.RCC_PLLI2SConfig), (16 bytes).
    Removing stm32f4xx_rcc.o(i.RCC_PLLSAICmd), (12 bytes).
    Removing stm32f4xx_rcc.o(i.RCC_PLLSAIConfig), (20 bytes).
    Removing stm32f4xx_rcc.o(i.RCC_RTCCLKCmd), (12 bytes).
    Removing stm32f4xx_rcc.o(i.RCC_RTCCLKConfig), (48 bytes).
    Removing stm32f4xx_rcc.o(i.RCC_SAIBlockACLKConfig), (20 bytes).
    Removing stm32f4xx_rcc.o(i.RCC_SAIBlockBCLKConfig), (20 bytes).
    Removing stm32f4xx_rcc.o(i.RCC_SAIPLLI2SClkDivConfig), (20 bytes).
    Removing stm32f4xx_rcc.o(i.RCC_SAIPLLSAIClkDivConfig), (28 bytes).
    Removing stm32f4xx_rcc.o(i.RCC_SYSCLKConfig), (20 bytes).
    Removing stm32f4xx_rcc.o(i.RCC_TIMCLKPresConfig), (12 bytes).
    Removing stm32f4xx_rcc.o(i.RCC_WaitForHSEStartUp), (44 bytes).
    Removing stm32f4xx_spi.o(.rev16_text), (4 bytes).
    Removing stm32f4xx_spi.o(.revsh_text), (4 bytes).
    Removing stm32f4xx_spi.o(.rrx_text), (6 bytes).
    Removing stm32f4xx_spi.o(i.I2S_Cmd), (20 bytes).
    Removing stm32f4xx_spi.o(i.I2S_FullDuplexConfig), (58 bytes).
    Removing stm32f4xx_spi.o(i.I2S_Init), (212 bytes).
    Removing stm32f4xx_spi.o(i.I2S_StructInit), (18 bytes).
    Removing stm32f4xx_spi.o(i.SPI_BiDirectionalLineConfig), (22 bytes).
    Removing stm32f4xx_spi.o(i.SPI_CalculateCRC), (20 bytes).
    Removing stm32f4xx_spi.o(i.SPI_DataSizeConfig), (16 bytes).
    Removing stm32f4xx_spi.o(i.SPI_GetCRC), (12 bytes).
    Removing stm32f4xx_spi.o(i.SPI_GetCRCPolynomial), (4 bytes).
    Removing stm32f4xx_spi.o(i.SPI_I2S_ClearFlag), (6 bytes).
    Removing stm32f4xx_spi.o(i.SPI_I2S_ClearITPendingBit), (14 bytes).
    Removing stm32f4xx_spi.o(i.SPI_I2S_DMACmd), (16 bytes).
    Removing stm32f4xx_spi.o(i.SPI_I2S_GetFlagStatus), (14 bytes).
    Removing stm32f4xx_spi.o(i.SPI_I2S_GetITStatus), (42 bytes).
    Removing stm32f4xx_spi.o(i.SPI_I2S_ITConfig), (24 bytes).
    Removing stm32f4xx_spi.o(i.SPI_I2S_ReceiveData), (4 bytes).
    Removing stm32f4xx_spi.o(i.SPI_I2S_SendData), (4 bytes).
    Removing stm32f4xx_spi.o(i.SPI_NSSInternalSoftwareConfig), (24 bytes).
    Removing stm32f4xx_spi.o(i.SPI_SSOutputCmd), (20 bytes).
    Removing stm32f4xx_spi.o(i.SPI_StructInit), (24 bytes).
    Removing stm32f4xx_spi.o(i.SPI_TIModeCmd), (20 bytes).
    Removing stm32f4xx_spi.o(i.SPI_TransmitCRC), (10 bytes).
    Removing stm32f4xx_syscfg.o(.rev16_text), (4 bytes).
    Removing stm32f4xx_syscfg.o(.revsh_text), (4 bytes).
    Removing stm32f4xx_syscfg.o(.rrx_text), (6 bytes).
    Removing stm32f4xx_syscfg.o(i.SYSCFG_CompensationCellCmd), (12 bytes).
    Removing stm32f4xx_syscfg.o(i.SYSCFG_DeInit), (24 bytes).
    Removing stm32f4xx_syscfg.o(i.SYSCFG_ETH_MediaInterfaceConfig), (12 bytes).
    Removing stm32f4xx_syscfg.o(i.SYSCFG_EXTILineConfig), (48 bytes).
    Removing stm32f4xx_syscfg.o(i.SYSCFG_GetCompensationCellStatus), (20 bytes).
    Removing stm32f4xx_syscfg.o(i.SYSCFG_MemoryRemapConfig), (12 bytes).
    Removing stm32f4xx_syscfg.o(i.SYSCFG_MemorySwappingBank), (12 bytes).
    Removing stm32f4xx_tim.o(.rev16_text), (4 bytes).
    Removing stm32f4xx_tim.o(.revsh_text), (4 bytes).
    Removing stm32f4xx_tim.o(.rrx_text), (6 bytes).
    Removing stm32f4xx_tim.o(i.TIM_ARRPreloadConfig), (20 bytes).
    Removing stm32f4xx_tim.o(i.TIM_BDTRConfig), (34 bytes).
    Removing stm32f4xx_tim.o(i.TIM_BDTRStructInit), (18 bytes).
    Removing stm32f4xx_tim.o(i.TIM_CCPreloadControl), (20 bytes).
    Removing stm32f4xx_tim.o(i.TIM_CCxCmd), (22 bytes).
    Removing stm32f4xx_tim.o(i.TIM_CCxNCmd), (22 bytes).
    Removing stm32f4xx_tim.o(i.TIM_ClearFlag), (6 bytes).
    Removing stm32f4xx_tim.o(i.TIM_ClearITPendingBit), (6 bytes).
    Removing stm32f4xx_tim.o(i.TIM_ClearOC1Ref), (12 bytes).
    Removing stm32f4xx_tim.o(i.TIM_ClearOC2Ref), (20 bytes).
    Removing stm32f4xx_tim.o(i.TIM_ClearOC3Ref), (12 bytes).
    Removing stm32f4xx_tim.o(i.TIM_ClearOC4Ref), (20 bytes).
    Removing stm32f4xx_tim.o(i.TIM_CounterModeConfig), (12 bytes).
    Removing stm32f4xx_tim.o(i.TIM_DMACmd), (16 bytes).
    Removing stm32f4xx_tim.o(i.TIM_DMAConfig), (8 bytes).
    Removing stm32f4xx_tim.o(i.TIM_DeInit), (336 bytes).
    Removing stm32f4xx_tim.o(i.TIM_ETRClockMode1Config), (18 bytes).
    Removing stm32f4xx_tim.o(i.TIM_ETRClockMode2Config), (18 bytes).
    Removing stm32f4xx_tim.o(i.TIM_ETRConfig), (24 bytes).
    Removing stm32f4xx_tim.o(i.TIM_EncoderInterfaceConfig), (50 bytes).
    Removing stm32f4xx_tim.o(i.TIM_ForcedOC1Config), (12 bytes).
    Removing stm32f4xx_tim.o(i.TIM_ForcedOC2Config), (20 bytes).
    Removing stm32f4xx_tim.o(i.TIM_ForcedOC3Config), (12 bytes).
    Removing stm32f4xx_tim.o(i.TIM_ForcedOC4Config), (20 bytes).
    Removing stm32f4xx_tim.o(i.TIM_GenerateEvent), (4 bytes).
    Removing stm32f4xx_tim.o(i.TIM_GetCapture1), (4 bytes).
    Removing stm32f4xx_tim.o(i.TIM_GetCapture2), (4 bytes).
    Removing stm32f4xx_tim.o(i.TIM_GetCapture3), (4 bytes).
    Removing stm32f4xx_tim.o(i.TIM_GetCapture4), (4 bytes).
    Removing stm32f4xx_tim.o(i.TIM_GetCounter), (4 bytes).
    Removing stm32f4xx_tim.o(i.TIM_GetFlagStatus), (14 bytes).
    Removing stm32f4xx_tim.o(i.TIM_GetITStatus), (24 bytes).
    Removing stm32f4xx_tim.o(i.TIM_GetPrescaler), (4 bytes).
    Removing stm32f4xx_tim.o(i.TIM_ITConfig), (16 bytes).
    Removing stm32f4xx_tim.o(i.TIM_ITRxExternalClockConfig), (18 bytes).
    Removing stm32f4xx_tim.o(i.TIM_InternalClockConfig), (10 bytes).
    Removing stm32f4xx_tim.o(i.TIM_OC1FastConfig), (12 bytes).
    Removing stm32f4xx_tim.o(i.TIM_OC1NPolarityConfig), (12 bytes).
    Removing stm32f4xx_tim.o(i.TIM_OC1PolarityConfig), (12 bytes).
    Removing stm32f4xx_tim.o(i.TIM_OC2FastConfig), (20 bytes).
    Removing stm32f4xx_tim.o(i.TIM_OC2NPolarityConfig), (20 bytes).
    Removing stm32f4xx_tim.o(i.TIM_OC2PolarityConfig), (20 bytes).
    Removing stm32f4xx_tim.o(i.TIM_OC3FastConfig), (12 bytes).
    Removing stm32f4xx_tim.o(i.TIM_OC3NPolarityConfig), (20 bytes).
    Removing stm32f4xx_tim.o(i.TIM_OC3PolarityConfig), (20 bytes).
    Removing stm32f4xx_tim.o(i.TIM_OC4FastConfig), (20 bytes).
    Removing stm32f4xx_tim.o(i.TIM_OC4PolarityConfig), (20 bytes).
    Removing stm32f4xx_tim.o(i.TIM_PWMIConfig), (108 bytes).
    Removing stm32f4xx_tim.o(i.TIM_PrescalerConfig), (6 bytes).
    Removing stm32f4xx_tim.o(i.TIM_RemapConfig), (6 bytes).
    Removing stm32f4xx_tim.o(i.TIM_SelectCCDMA), (20 bytes).
    Removing stm32f4xx_tim.o(i.TIM_SelectCOM), (20 bytes).
    Removing stm32f4xx_tim.o(i.TIM_SelectHallSensor), (20 bytes).
    Removing stm32f4xx_tim.o(i.TIM_SelectInputTrigger), (12 bytes).
    Removing stm32f4xx_tim.o(i.TIM_SelectMasterSlaveMode), (16 bytes).
    Removing stm32f4xx_tim.o(i.TIM_SelectOCxM), (74 bytes).
    Removing stm32f4xx_tim.o(i.TIM_SelectOnePulseMode), (16 bytes).
    Removing stm32f4xx_tim.o(i.TIM_SelectOutputTrigger), (16 bytes).
    Removing stm32f4xx_tim.o(i.TIM_SetAutoreload), (4 bytes).
    Removing stm32f4xx_tim.o(i.TIM_SetClockDivision), (16 bytes).
    Removing stm32f4xx_tim.o(i.TIM_SetCompare1), (4 bytes).
    Removing stm32f4xx_tim.o(i.TIM_SetCompare2), (4 bytes).
    Removing stm32f4xx_tim.o(i.TIM_SetCompare3), (4 bytes).
    Removing stm32f4xx_tim.o(i.TIM_SetCompare4), (4 bytes).
    Removing stm32f4xx_tim.o(i.TIM_SetCounter), (4 bytes).
    Removing stm32f4xx_tim.o(i.TIM_TIxExternalClockConfig), (46 bytes).
    Removing stm32f4xx_tim.o(i.TIM_UpdateDisableConfig), (20 bytes).
    Removing stm32f4xx_tim.o(i.TIM_UpdateRequestConfig), (20 bytes).
    Removing stm32f4xx_usart.o(.rev16_text), (4 bytes).
    Removing stm32f4xx_usart.o(.revsh_text), (4 bytes).
    Removing stm32f4xx_usart.o(.rrx_text), (6 bytes).
    Removing stm32f4xx_usart.o(i.USART_ClearFlag), (6 bytes).
    Removing stm32f4xx_usart.o(i.USART_ClockInit), (28 bytes).
    Removing stm32f4xx_usart.o(i.USART_ClockStructInit), (12 bytes).
    Removing stm32f4xx_usart.o(i.USART_DeInit), (172 bytes).
    Removing stm32f4xx_usart.o(i.USART_GetFlagStatus), (14 bytes).
    Removing stm32f4xx_usart.o(i.USART_IrDACmd), (20 bytes).
    Removing stm32f4xx_usart.o(i.USART_IrDAConfig), (16 bytes).
    Removing stm32f4xx_usart.o(i.USART_LINBreakDetectLengthConfig), (16 bytes).
    Removing stm32f4xx_usart.o(i.USART_LINCmd), (20 bytes).
    Removing stm32f4xx_usart.o(i.USART_OneBitMethodCmd), (20 bytes).
    Removing stm32f4xx_usart.o(i.USART_OverSampling8Cmd), (20 bytes).
    Removing stm32f4xx_usart.o(i.USART_ReceiveData), (8 bytes).
    Removing stm32f4xx_usart.o(i.USART_ReceiverWakeUpCmd), (20 bytes).
    Removing stm32f4xx_usart.o(i.USART_SendBreak), (10 bytes).
    Removing stm32f4xx_usart.o(i.USART_SetAddress), (16 bytes).
    Removing stm32f4xx_usart.o(i.USART_SetGuardTime), (16 bytes).
    Removing stm32f4xx_usart.o(i.USART_SetPrescaler), (16 bytes).
    Removing stm32f4xx_usart.o(i.USART_SmartCardCmd), (20 bytes).
    Removing stm32f4xx_usart.o(i.USART_SmartCardNACKCmd), (20 bytes).
    Removing stm32f4xx_usart.o(i.USART_StructInit), (22 bytes).
    Removing stm32f4xx_usart.o(i.USART_WakeUpConfig), (16 bytes).
    Removing main.o(.rev16_text), (4 bytes).
    Removing main.o(.revsh_text), (4 bytes).
    Removing main.o(.rrx_text), (6 bytes).
    Removing main.o(i.main_process), (4 bytes).
    Removing system_stm32f4xx.o(.rev16_text), (4 bytes).
    Removing system_stm32f4xx.o(.revsh_text), (4 bytes).
    Removing system_stm32f4xx.o(.rrx_text), (6 bytes).
    Removing system_stm32f4xx.o(i.SystemCoreClockUpdate), (120 bytes).
    Removing system_stm32f4xx.o(.data), (4 bytes).
    Removing target.o(.rev16_text), (4 bytes).
    Removing target.o(.revsh_text), (4 bytes).
    Removing target.o(.rrx_text), (6 bytes).
    Removing system.o(.rev16_text), (4 bytes).
    Removing system.o(.revsh_text), (4 bytes).
    Removing system.o(.rrx_text), (6 bytes).
    Removing accgyro_mpu.o(.rev16_text), (4 bytes).
    Removing accgyro_mpu.o(.revsh_text), (4 bytes).
    Removing accgyro_mpu.o(.rrx_text), (6 bytes).
    Removing accgyro_mpu.o(i.mpuAccRead), (46 bytes).
    Removing accgyro_mpu.o(i.mpuCheckDataReady), (18 bytes).
    Removing accgyro_mpu.o(i.mpuDetect), (80 bytes).
    Removing accgyro_mpu.o(i.mpuGyroInit), (76 bytes).
    Removing accgyro_mpu.o(i.mpuGyroRead), (48 bytes).
    Removing accgyro_mpu.o(i.mpuIntExtiHandler), (18 bytes).
    Removing accgyro_mpu.o(i.mpuTemperatureRead), (32 bytes).
    Removing accgyro_mpu.o(.data), (4 bytes).
    Removing accgyro_spi_mpu9250.o(.rev16_text), (4 bytes).
    Removing accgyro_spi_mpu9250.o(.revsh_text), (4 bytes).
    Removing accgyro_spi_mpu9250.o(.rrx_text), (6 bytes).
    Removing accgyro_spi_mpu9250.o(i.mpu9250AccAndGyroInit), (160 bytes).
    Removing accgyro_spi_mpu9250.o(i.mpu9250ReadRegister), (64 bytes).
    Removing accgyro_spi_mpu9250.o(i.mpu9250ResetGyro), (20 bytes).
    Removing accgyro_spi_mpu9250.o(i.mpu9250SlowReadRegister), (76 bytes).
    Removing accgyro_spi_mpu9250.o(i.mpu9250SpiAccDetect), (40 bytes).
    Removing accgyro_spi_mpu9250.o(i.mpu9250SpiAccInit), (8 bytes).
    Removing accgyro_spi_mpu9250.o(i.mpu9250SpiDetect), (116 bytes).
    Removing accgyro_spi_mpu9250.o(i.mpu9250SpiGyroDetect), (60 bytes).
    Removing accgyro_spi_mpu9250.o(i.mpu9250SpiGyroInit), (80 bytes).
    Removing accgyro_spi_mpu9250.o(i.mpu9250WriteRegister), (64 bytes).
    Removing accgyro_spi_mpu9250.o(i.verifyMPU9250WriteRegister), (64 bytes).
    Removing accgyro_spi_mpu9250.o(.data), (8 bytes).
    Removing bus_spi.o(.rev16_text), (4 bytes).
    Removing bus_spi.o(.revsh_text), (4 bytes).
    Removing bus_spi.o(.rrx_text), (6 bytes).
    Removing bus_spi.o(i.spiDeviceByInstance), (48 bytes).
    Removing bus_spi.o(i.spiGetErrorCounter), (28 bytes).
    Removing bus_spi.o(i.spiIsBusBusy), (32 bytes).
    Removing bus_spi.o(i.spiResetErrorCounter), (28 bytes).
    Removing bus_spi.o(i.spiSetDivisor), (138 bytes).
    Removing bus_spi.o(i.spiTimeoutUserCallback), (36 bytes).
    Removing bus_spi.o(i.spiTransfer), (200 bytes).
    Removing bus_spi.o(i.spiTransferByte), (82 bytes).
    Removing button.o(.rev16_text), (4 bytes).
    Removing button.o(.revsh_text), (4 bytes).
    Removing button.o(.rrx_text), (6 bytes).
    Removing button.o(i.btnIntExtiHandler), (12 bytes).
    Removing button.o(i.buttonInit), (84 bytes).
    Removing button.o(i.userBtnPollInit), (36 bytes).
    Removing button.o(i.userBtnPollOps), (84 bytes).
    Removing button.o(.bss), (16 bytes).
    Removing button.o(.constdata), (1 bytes).
    Removing dma_stm32f4xx.o(.rev16_text), (4 bytes).
    Removing dma_stm32f4xx.o(.revsh_text), (4 bytes).
    Removing dma_stm32f4xx.o(.rrx_text), (6 bytes).
    Removing dma_stm32f4xx.o(i.dmaGetIdentifier), (36 bytes).
    Removing dma_stm32f4xx.o(i.dmaInit), (36 bytes).
    Removing exti.o(.rev16_text), (4 bytes).
    Removing exti.o(.revsh_text), (4 bytes).
    Removing exti.o(.rrx_text), (6 bytes).
    Removing exti.o(i.EXTIConfig), (144 bytes).
    Removing exti.o(i.EXTIEnable), (32 bytes).
    Removing exti.o(i.EXTIHandlerInit), (4 bytes).
    Removing exti.o(i.EXTIRelease), (36 bytes).
    Removing exti.o(.constdata), (23 bytes).
    Removing gps.o(.rev16_text), (4 bytes).
    Removing gps.o(.revsh_text), (4 bytes).
    Removing gps.o(.rrx_text), (6 bytes).
    Removing gps.o(i.gpsInit), (44 bytes).
    Removing gps.o(i.gpsPrint), (16 bytes).
    Removing gps.o(i.gpsWrite), (16 bytes).
    Removing gps.o(.data), (4 bytes).
    Removing gyro_sync.o(.rev16_text), (4 bytes).
    Removing gyro_sync.o(.revsh_text), (4 bytes).
    Removing gyro_sync.o(.rrx_text), (6 bytes).
    Removing gyro_sync.o(i.gyroMPU6xxxGetDividerDrops), (6 bytes).
    Removing gyro_sync.o(i.gyroSetSampleRate), (84 bytes).
    Removing gyro_sync.o(i.gyroSyncCheckUpdate), (10 bytes).
    Removing io.o(.rev16_text), (4 bytes).
    Removing io.o(.revsh_text), (4 bytes).
    Removing io.o(.rrx_text), (6 bytes).
    Removing io.o(i.IORead), (22 bytes).
    Removing io.o(i.IORelease), (6 bytes).
    Removing io.o(i.IOToggle), (20 bytes).
    Removing io.o(i.IO_EXTI_Line), (18 bytes).
    Removing io.o(i.IO_EXTI_PinSource), (4 bytes).
    Removing io.o(i.IO_EXTI_PortSourceGPIO), (4 bytes).
    Removing io.o(i.IO_GPIO), (4 bytes).
    Removing io.o(i.IO_Pin), (4 bytes).
    Removing io.o(i.IO_Rec), (2 bytes).
    Removing led.o(.rev16_text), (4 bytes).
    Removing led.o(.revsh_text), (4 bytes).
    Removing led.o(.rrx_text), (6 bytes).
    Removing led.o(i.LedToggle), (16 bytes).
    Removing led.o(i.taskLed3), (6 bytes).
    Removing led.o(i.taskLed4), (6 bytes).
    Removing led.o(i.taskLed5), (6 bytes).
    Removing led.o(i.taskLed6), (6 bytes).
    Removing pwm_output.o(.rev16_text), (4 bytes).
    Removing pwm_output.o(.revsh_text), (4 bytes).
    Removing pwm_output.o(.rrx_text), (6 bytes).
    Removing pwm_output.o(.data), (1 bytes).
    Removing rcc.o(.rev16_text), (4 bytes).
    Removing rcc.o(.revsh_text), (4 bytes).
    Removing rcc.o(.rrx_text), (6 bytes).
    Removing rx_pwm.o(.rev16_text), (4 bytes).
    Removing rx_pwm.o(.revsh_text), (4 bytes).
    Removing rx_pwm.o(.rrx_text), (6 bytes).
    Removing rx_pwm.o(i.isPWMDataBeingReceived), (28 bytes).
    Removing rx_pwm.o(i.pwmEdgeCallback), (228 bytes).
    Removing rx_pwm.o(i.pwmICConfig), (58 bytes).
    Removing rx_pwm.o(i.pwmOverflowCallback), (36 bytes).
    Removing rx_pwm.o(i.pwmRead), (12 bytes).
    Removing rx_pwm.o(i.pwmRxInit), (172 bytes).
    Removing rx_pwm.o(i.ultrasoundTimerInit), (216 bytes).
    Removing rx_pwm.o(.bss), (296 bytes).
    Removing rx_pwm.o(.constdata), (16 bytes).
    Removing rxserial1test.o(.rev16_text), (4 bytes).
    Removing rxserial1test.o(.revsh_text), (4 bytes).
    Removing rxserial1test.o(.rrx_text), (6 bytes).
    Removing rxserial1test.o(i.rxSerial1TestInit), (44 bytes).
    Removing rxserial1test.o(i.rxSerial1TestPrint), (16 bytes).
    Removing rxserial1test.o(i.rxSerial1TestWrite), (16 bytes).
    Removing rxserial1test.o(.data), (4 bytes).
    Removing rxserial3test.o(.rev16_text), (4 bytes).
    Removing rxserial3test.o(.revsh_text), (4 bytes).
    Removing rxserial3test.o(.rrx_text), (6 bytes).
    Removing rxserial3test.o(i.rxSerial3TestPrint), (16 bytes).
    Removing sdcard_standard.o(i.readBitfield), (58 bytes).
    Removing serial.o(.rev16_text), (4 bytes).
    Removing serial.o(.revsh_text), (4 bytes).
    Removing serial.o(.rrx_text), (6 bytes).
    Removing serial.o(i.isSerialTransmitBufferEmpty), (6 bytes).
    Removing serial.o(i.serialPrint), (24 bytes).
    Removing serial.o(i.serialRead), (6 bytes).
    Removing serial.o(.constdata), (64 bytes).
    Removing serial_uart.o(.rev16_text), (4 bytes).
    Removing serial_uart.o(.revsh_text), (4 bytes).
    Removing serial_uart.o(.rrx_text), (6 bytes).
    Removing serial_uart_stm32f4xx.o(.rev16_text), (4 bytes).
    Removing serial_uart_stm32f4xx.o(.revsh_text), (4 bytes).
    Removing serial_uart_stm32f4xx.o(.rrx_text), (6 bytes).
    Removing sound_beeper.o(.rev16_text), (4 bytes).
    Removing sound_beeper.o(.revsh_text), (4 bytes).
    Removing sound_beeper.o(.rrx_text), (6 bytes).
    Removing sound_beeper.o(i.systemBeeperToggle), (12 bytes).
    Removing timer.o(.rev16_text), (4 bytes).
    Removing timer.o(.revsh_text), (4 bytes).
    Removing timer.o(.rrx_text), (6 bytes).
    Removing timer.o(i.configTimeBase4MotorEncoder), (44 bytes).
    Removing timer.o(i.configTimeBaseKhz), (76 bytes).
    Removing timer.o(i.configTimeBaseMhz), (76 bytes).
    Removing timer.o(i.configTimeBaseMhz4UserBtn), (72 bytes).
    Removing timer.o(i.lookupTimerIndex), (108 bytes).
    Removing timer.o(i.timerChCCHandlerInit), (4 bytes).
    Removing timer.o(i.timerChConfigCallbacks), (160 bytes).
    Removing timer.o(i.timerChOvrHandlerInit), (8 bytes).
    Removing timer.o(i.timerConfigure), (54 bytes).
    Removing timer.o(i.timerConfigure4UserBtn), (54 bytes).
    Removing timer.o(i.timerForceOverflow), (52 bytes).
    Removing timer.o(i.timerInputIrq), (36 bytes).
    Removing timer.o(i.timerNVICConfigure), (30 bytes).
    Removing timer_stm32f4xx.o(.rev16_text), (4 bytes).
    Removing timer_stm32f4xx.o(.revsh_text), (4 bytes).
    Removing timer_stm32f4xx.o(.rrx_text), (6 bytes).
    Removing timer_stm32f4xx.o(i.timerClockDivisor), (60 bytes).
    Removing oled.o(.rev16_text), (4 bytes).
    Removing oled.o(.revsh_text), (4 bytes).
    Removing oled.o(.rrx_text), (6 bytes).
    Removing oled.o(i.OLED_Display_Off), (30 bytes).
    Removing oled.o(i.OLED_Display_On), (30 bytes).
    Removing bluetoothserial6.o(.rev16_text), (4 bytes).
    Removing bluetoothserial6.o(.revsh_text), (4 bytes).
    Removing bluetoothserial6.o(.rrx_text), (6 bytes).
    Removing bluetoothserial6.o(i.bluetoothSerial6Print), (16 bytes).
    Removing bluetoothserial6.o(i.bluetoothSerial6Read), (12 bytes).
    Removing bluetoothserial6.o(i.bluetoothSerial6Write), (16 bytes).
    Removing ultrasound_hcsr04.o(.rev16_text), (4 bytes).
    Removing ultrasound_hcsr04.o(.revsh_text), (4 bytes).
    Removing ultrasound_hcsr04.o(.rrx_text), (6 bytes).
    Removing ultrasound_hcsr04.o(i.hcsr04_extiHandler_ultrasound1), (40 bytes).
    Removing ultrasound_hcsr04.o(i.hcsr04_extiHandler_ultrasound2), (40 bytes).
    Removing ultrasound_hcsr04.o(i.hcsr04_extiHandler_ultrasound3), (40 bytes).
    Removing ultrasound_hcsr04.o(i.hcsr04_extiHandler_ultrasound4), (40 bytes).
    Removing ultrasound_hcsr04.o(i.hcsr04_extiHandler_ultrasound5), (40 bytes).
    Removing ultrasound_hcsr04.o(i.hcsr04_extiHandler_ultrasound6), (40 bytes).
    Removing ultrasound_hcsr04.o(i.hcsr04_init), (584 bytes).
    Removing config.o(.rev16_text), (4 bytes).
    Removing config.o(.revsh_text), (4 bytes).
    Removing config.o(.rrx_text), (6 bytes).
    Removing config.o(i.beeperOffClear), (20 bytes).
    Removing config.o(i.beeperOffClearAll), (16 bytes).
    Removing config.o(i.beeperOffSet), (20 bytes).
    Removing config.o(i.beeperOffSetAll), (20 bytes).
    Removing config.o(i.getBeeperOffMask), (12 bytes).
    Removing config.o(i.getPreferredBeeperOffMask), (12 bytes).
    Removing config.o(i.setBeeperOffMask), (12 bytes).
    Removing config.o(i.setPreferredBeeperOffMask), (12 bytes).
    Removing fc_tasks.o(.rev16_text), (4 bytes).
    Removing fc_tasks.o(.revsh_text), (4 bytes).
    Removing fc_tasks.o(.rrx_text), (6 bytes).
    Removing fc_tasks.o(i.Incremental_PIController), (80 bytes).
    Removing fc_tasks.o(i.activateMotors), (36 bytes).
    Removing fc_tasks.o(i.deactivateMotors), (76 bytes).
    Removing fc_tasks.o(i.layDownSBWMR), (100 bytes).
    Removing fc_tasks.o(i.liftUpSBWMR), (168 bytes).
    Removing fc_tasks.o(.data), (4 bytes).
    Removing fc_tasks.o(.data), (4 bytes).
    Removing fc_tasks.o(.data), (4 bytes).
    Removing fc_tasks.o(.data), (4 bytes).
    Removing fc_tasks.o(.data), (4 bytes).
    Removing fc_tasks.o(.data), (4 bytes).
    Removing fc_tasks.o(.data), (4 bytes).
    Removing runtime_config.o(i.disableFlightMode), (16 bytes).
    Removing runtime_config.o(i.enableFlightMode), (16 bytes).
    Removing runtime_config.o(i.sensorClear), (16 bytes).
    Removing runtime_config.o(i.sensorSet), (16 bytes).
    Removing runtime_config.o(i.sensorsMask), (12 bytes).
    Removing beeper.o(.rev16_text), (4 bytes).
    Removing beeper.o(.revsh_text), (4 bytes).
    Removing beeper.o(.rrx_text), (6 bytes).
    Removing beeper.o(i.beeper), (2 bytes).
    Removing beeper.o(i.beeperConfirmationBeeps), (2 bytes).
    Removing beeper.o(i.beeperSilence), (2 bytes).
    Removing beeper.o(i.beeperUpdate), (2 bytes).
    Removing imu.o(.rev16_text), (4 bytes).
    Removing imu.o(.revsh_text), (4 bytes).
    Removing imu.o(.rrx_text), (6 bytes).
    Removing config_eeprom.o(.rev16_text), (4 bytes).
    Removing config_eeprom.o(.revsh_text), (4 bytes).
    Removing config_eeprom.o(.rrx_text), (6 bytes).
    Removing config_eeprom.o(i.calculateChecksum), (22 bytes).
    Removing config_eeprom.o(i.isEEPROMContentValid), (304 bytes).
    Removing config_eeprom.o(i.writeEEPROM), (188 bytes).
    Removing feature.o(.rev16_text), (4 bytes).
    Removing feature.o(.revsh_text), (4 bytes).
    Removing feature.o(.rrx_text), (6 bytes).
    Removing feature.o(i.feature), (20 bytes).
    Removing feature.o(i.featureClearAll), (12 bytes).
    Removing feature.o(i.featureMask), (12 bytes).
    Removing feature.o(i.intFeatureClear), (8 bytes).
    Removing acceleration.o(.rev16_text), (4 bytes).
    Removing acceleration.o(.revsh_text), (4 bytes).
    Removing acceleration.o(.rrx_text), (6 bytes).
    Removing acceleration.o(i.accDetect), (92 bytes).
    Removing acceleration.o(i.accInit), (144 bytes).
    Removing gyro.o(.rev16_text), (4 bytes).
    Removing gyro.o(.revsh_text), (4 bytes).
    Removing gyro.o(.rrx_text), (6 bytes).
    Removing gyro.o(i.gyroInit), (136 bytes).
    Removing gyro.o(i.gyroInitFilters), (392 bytes).
    Removing gyro.o(.constdata), (1 bytes).
    Removing initialisation.o(.rev16_text), (4 bytes).
    Removing initialisation.o(.revsh_text), (4 bytes).
    Removing initialisation.o(.rrx_text), (6 bytes).
    Removing initialisation.o(i.sensorsAutodetect), (84 bytes).
    Removing initialisation.o(.data), (4 bytes).
    Removing boardalignment.o(i.initBoardAlignment), (76 bytes).
    Removing ultrasound.o(.rev16_text), (4 bytes).
    Removing ultrasound.o(.revsh_text), (4 bytes).
    Removing ultrasound.o(.rrx_text), (6 bytes).
    Removing ultrasound.o(i.ultrasoundInit), (28 bytes).
    Removing ultrasound.o(.data), (2 bytes).
    Removing filter.o(i.filterGetNotchQ), (88 bytes).
    Removing filter.o(i.nullFilterApply), (2 bytes).
    Removing filter.o(i.pt1FilterApply), (22 bytes).
    Removing filter.o(i.pt1FilterApply4), (84 bytes).
    Removing filter.o(i.pt1FilterInit), (52 bytes).
    Removing maths.o(i.acosApprox), (104 bytes).
    Removing maths.o(i.atan2Approx), (224 bytes).
    Removing maths.o(i.buildRotationMatrix), (184 bytes).
    Removing maths.o(i.fastInvSqrt), (44 bytes).
    Removing maths.o(i.scaleRange), (24 bytes).
    Removing pwm.o(.rev16_text), (4 bytes).
    Removing pwm.o(.revsh_text), (4 bytes).
    Removing pwm.o(.rrx_text), (6 bytes).
    Removing pwm.o(i.pwmReadRawRC), (12 bytes).
    Removing pwm.o(i.rxPwmInit), (36 bytes).
    Removing rx.o(.rev16_text), (4 bytes).
    Removing rx.o(.revsh_text), (4 bytes).
    Removing rx.o(.rrx_text), (6 bytes).
    Removing rx.o(i.calculateNonDataDrivenChannel), (96 bytes).
    Removing rx.o(i.calculateRxChannelsAndUpdateFailsafe), (52 bytes).
    Removing rx.o(i.detectAndApplySignalLossBehaviour), (272 bytes).
    Removing rx.o(i.getRxChannelCount), (44 bytes).
    Removing rx.o(i.nullFrameStatus), (4 bytes).
    Removing rx.o(i.nullReadRawRC), (4 bytes).
    Removing rx.o(i.parseRcChannels), (56 bytes).
    Removing rx.o(i.readRxChannelsApplyRanges), (120 bytes).
    Removing rx.o(i.resetAllRxChannelRangeConfigurations), (24 bytes).
    Removing rx.o(i.rxGetRefreshRate), (12 bytes).
    Removing rx.o(i.rxInit), (160 bytes).
    Removing rx.o(i.rxIsReceivingSignal), (12 bytes).
    Removing rx.o(i.rxUpdateCheck), (84 bytes).
    Removing rx.o(i.useRxConfig), (12 bytes).
    Removing rx.o(.bss), (220 bytes).
    Removing rx.o(.constdata), (21 bytes).
    Removing rx.o(.data), (2 bytes).
    Removing rx.o(.data), (32 bytes).
    Removing debug.o(.data), (8 bytes).
    Removing debug.o(.data), (1 bytes).
    Removing scheduler.o(.rev16_text), (4 bytes).
    Removing scheduler.o(.revsh_text), (4 bytes).
    Removing scheduler.o(.rrx_text), (6 bytes).
    Removing scheduler.o(i.getTaskDeltaTime), (44 bytes).
    Removing scheduler.o(i.rescheduleTask), (52 bytes).

599 unused section(s) (total 17396 bytes) removed from the image.

==============================================================================

Image Symbol Table

    Local Symbols

    Symbol Name                              Value     Ov Type        Size  Object(Section)

    ../clib/angel/boardlib.s                 0x00000000   Number         0  boardinit3.o ABSOLUTE
    ../clib/angel/boardlib.s                 0x00000000   Number         0  boardinit2.o ABSOLUTE
    ../clib/angel/boardlib.s                 0x00000000   Number         0  boardinit1.o ABSOLUTE
    ../clib/angel/boardlib.s                 0x00000000   Number         0  boardshut.o ABSOLUTE
    ../clib/angel/dczerorl2.s                0x00000000   Number         0  __dczerorl2.o ABSOLUTE
    ../clib/angel/handlers.s                 0x00000000   Number         0  __scatter_zi.o ABSOLUTE
    ../clib/angel/kernel.s                   0x00000000   Number         0  __rtentry4.o ABSOLUTE
    ../clib/angel/kernel.s                   0x00000000   Number         0  rtexit.o ABSOLUTE
    ../clib/angel/kernel.s                   0x00000000   Number         0  __rtentry.o ABSOLUTE
    ../clib/angel/kernel.s                   0x00000000   Number         0  __rtentry2.o ABSOLUTE
    ../clib/angel/kernel.s                   0x00000000   Number         0  rtexit2.o ABSOLUTE
    ../clib/angel/rt.s                       0x00000000   Number         0  rt_raise.o ABSOLUTE
    ../clib/angel/rt.s                       0x00000000   Number         0  rt_errno_addr_intlibspace.o ABSOLUTE
    ../clib/angel/rt.s                       0x00000000   Number         0  rt_errno_addr.o ABSOLUTE
    ../clib/angel/rt.s                       0x00000000   Number         0  rt_ctype_table.o ABSOLUTE
    ../clib/angel/rt.s                       0x00000000   Number         0  rt_locale_intlibspace.o ABSOLUTE
    ../clib/angel/rt.s                       0x00000000   Number         0  rt_locale.o ABSOLUTE
    ../clib/angel/scatter.s                  0x00000000   Number         0  __scatter.o ABSOLUTE
    ../clib/angel/startup.s                  0x00000000   Number         0  __main.o ABSOLUTE
    ../clib/angel/sys.s                      0x00000000   Number         0  use_no_semi.o ABSOLUTE
    ../clib/angel/sys.s                      0x00000000   Number         0  indicate_semi.o ABSOLUTE
    ../clib/angel/sys.s                      0x00000000   Number         0  libspace.o ABSOLUTE
    ../clib/angel/sys.s                      0x00000000   Number         0  sys_stackheap_outer.o ABSOLUTE
    ../clib/angel/sysapp.c                   0x00000000   Number         0  sys_command.o ABSOLUTE
    ../clib/angel/sysapp.c                   0x00000000   Number         0  sys_wrch.o ABSOLUTE
    ../clib/angel/sysapp.c                   0x00000000   Number         0  sys_exit.o ABSOLUTE
    ../clib/armsys.c                         0x00000000   Number         0  argv_veneer.o ABSOLUTE
    ../clib/armsys.c                         0x00000000   Number         0  no_argv.o ABSOLUTE
    ../clib/armsys.c                         0x00000000   Number         0  argv_veneer.o ABSOLUTE
    ../clib/armsys.c                         0x00000000   Number         0  _get_argv_nomalloc.o ABSOLUTE
    ../clib/ctype.c                          0x00000000   Number         0  tolower.o ABSOLUTE
    ../clib/fenv.c                           0x00000000   Number         0  _rserrno.o ABSOLUTE
    ../clib/heapalloc.c                      0x00000000   Number         0  hrguard.o ABSOLUTE
    ../clib/heapaux.c                        0x00000000   Number         0  heapauxi.o ABSOLUTE
    ../clib/libinit.s                        0x00000000   Number         0  libshutdown2.o ABSOLUTE
    ../clib/libinit.s                        0x00000000   Number         0  libinit.o ABSOLUTE
    ../clib/libinit.s                        0x00000000   Number         0  libinit2.o ABSOLUTE
    ../clib/libinit.s                        0x00000000   Number         0  libshutdown.o ABSOLUTE
    ../clib/locale.s                         0x00000000   Number         0  lc_ctype_c.o ABSOLUTE
    ../clib/memcpset.s                       0x00000000   Number         0  strcmpv7m.o ABSOLUTE
    ../clib/memcpset.s                       0x00000000   Number         0  aeabi_memset.o ABSOLUTE
    ../clib/memcpset.s                       0x00000000   Number         0  rt_memcpy_w.o ABSOLUTE
    ../clib/memcpset.s                       0x00000000   Number         0  rt_memmove_w.o ABSOLUTE
    ../clib/memcpset.s                       0x00000000   Number         0  rt_memclr.o ABSOLUTE
    ../clib/memcpset.s                       0x00000000   Number         0  rt_memclr_w.o ABSOLUTE
    ../clib/memcpset.s                       0x00000000   Number         0  strncpy.o ABSOLUTE
    ../clib/printf.c                         0x00000000   Number         0  __printf_wp.o ABSOLUTE
    ../clib/printf.c                         0x00000000   Number         0  __printf_nopercent.o ABSOLUTE
    ../clib/printf.c                         0x00000000   Number         0  _printf_intcommon.o ABSOLUTE
    ../clib/printf.c                         0x00000000   Number         0  _printf_char_file.o ABSOLUTE
    ../clib/printf.c                         0x00000000   Number         0  __printf_ss.o ABSOLUTE
    ../clib/printf.c                         0x00000000   Number         0  __printf_flags_wp.o ABSOLUTE
    ../clib/printf.c                         0x00000000   Number         0  __printf_flags_ss.o ABSOLUTE
    ../clib/printf.c                         0x00000000   Number         0  __printf_ss_wp.o ABSOLUTE
    ../clib/printf.c                         0x00000000   Number         0  __printf_flags_ss_wp.o ABSOLUTE
    ../clib/printf.c                         0x00000000   Number         0  __printf_flags.o ABSOLUTE
    ../clib/printf.c                         0x00000000   Number         0  _printf_char.o ABSOLUTE
    ../clib/printf.c                         0x00000000   Number         0  _printf_dec.o ABSOLUTE
    ../clib/printf.c                         0x00000000   Number         0  _printf_str.o ABSOLUTE
    ../clib/printf.c                         0x00000000   Number         0  __printf.o ABSOLUTE
    ../clib/printf.c                         0x00000000   Number         0  noretval__2printf.o ABSOLUTE
    ../clib/printf.c                         0x00000000   Number         0  __2printf.o ABSOLUTE
    ../clib/printf.c                         0x00000000   Number         0  _printf_char_common.o ABSOLUTE
    ../clib/printf_percent.s                 0x00000000   Number         0  _printf_percent_end.o ABSOLUTE
    ../clib/printf_percent.s                 0x00000000   Number         0  _printf_u.o ABSOLUTE
    ../clib/printf_percent.s                 0x00000000   Number         0  _printf_percent.o ABSOLUTE
    ../clib/printf_percent.s                 0x00000000   Number         0  _printf_d.o ABSOLUTE
    ../clib/printf_percent.s                 0x00000000   Number         0  _printf_s.o ABSOLUTE
    ../clib/signal.c                         0x00000000   Number         0  defsig_abrt_inner.o ABSOLUTE
    ../clib/signal.c                         0x00000000   Number         0  defsig_cppl_inner.o ABSOLUTE
    ../clib/signal.c                         0x00000000   Number         0  defsig_rtmem_outer.o ABSOLUTE
    ../clib/signal.c                         0x00000000   Number         0  defsig_other.o ABSOLUTE
    ../clib/signal.c                         0x00000000   Number         0  defsig_segv_inner.o ABSOLUTE
    ../clib/signal.c                         0x00000000   Number         0  defsig_fpe_inner.o ABSOLUTE
    ../clib/signal.c                         0x00000000   Number         0  defsig_rtred_inner.o ABSOLUTE
    ../clib/signal.c                         0x00000000   Number         0  defsig_general.o ABSOLUTE
    ../clib/signal.c                         0x00000000   Number         0  defsig_rtmem_inner.o ABSOLUTE
    ../clib/signal.c                         0x00000000   Number         0  __raise.o ABSOLUTE
    ../clib/signal.c                         0x00000000   Number         0  defsig_exit.o ABSOLUTE
    ../clib/signal.c                         0x00000000   Number         0  defsig_stak_inner.o ABSOLUTE
    ../clib/signal.c                         0x00000000   Number         0  defsig_pvfn_inner.o ABSOLUTE
    ../clib/signal.c                         0x00000000   Number         0  defsig_rtmem_formal.o ABSOLUTE
    ../clib/signal.s                         0x00000000   Number         0  defsig.o ABSOLUTE
    ../clib/stdio.c                          0x00000000   Number         0  ferror_locked.o ABSOLUTE
    ../clib/stdio.c                          0x00000000   Number         0  ferror.o ABSOLUTE
    ../clib/stdlib.c                         0x00000000   Number         0  exit.o ABSOLUTE
    ../clib/string.c                         0x00000000   Number         0  strchr.o ABSOLUTE
    ../clib/string.c                         0x00000000   Number         0  strncasecmp.o ABSOLUTE
    ../fplib/d2f.s                           0x00000000   Number         0  d2f.o ABSOLUTE
    ../fplib/daddsub.s                       0x00000000   Number         0  daddsub_clz.o ABSOLUTE
    ../fplib/dcmpi.s                         0x00000000   Number         0  dcmpi.o ABSOLUTE
    ../fplib/ddiv.s                          0x00000000   Number         0  ddiv.o ABSOLUTE
    ../fplib/dfix.s                          0x00000000   Number         0  dfix.o ABSOLUTE
    ../fplib/dflt.s                          0x00000000   Number         0  dflt_clz.o ABSOLUTE
    ../fplib/dleqf.s                         0x00000000   Number         0  dleqf.o ABSOLUTE
    ../fplib/dmul.s                          0x00000000   Number         0  dmul.o ABSOLUTE
    ../fplib/dnaninf.s                       0x00000000   Number         0  dnaninf.o ABSOLUTE
    ../fplib/dretinf.s                       0x00000000   Number         0  dretinf.o ABSOLUTE
    ../fplib/drleqf.s                        0x00000000   Number         0  drleqf.o ABSOLUTE
    ../fplib/drnd.s                          0x00000000   Number         0  drnd.o ABSOLUTE
    ../fplib/f2d.s                           0x00000000   Number         0  f2d.o ABSOLUTE
    ../fplib/ffix.s                          0x00000000   Number         0  ffix.o ABSOLUTE
    ../fplib/fnaninf.s                       0x00000000   Number         0  fnaninf.o ABSOLUTE
    ../fplib/fpinit.s                        0x00000000   Number         0  fpinit.o ABSOLUTE
    ../fplib/fretinf.s                       0x00000000   Number         0  fretinf.o ABSOLUTE
    ../fplib/frnd.s                          0x00000000   Number         0  frnd.o ABSOLUTE
    ../fplib/istatus.s                       0x00000000   Number         0  istatus.o ABSOLUTE
    ../fplib/usenofp.s                       0x00000000   Number         0  usenofp.o ABSOLUTE
    ../mathlib/acosf.c                       0x00000000   Number         0  acosf.o ABSOLUTE
    ../mathlib/acosf.c                       0x00000000   Number         0  acosf_x.o ABSOLUTE
    ../mathlib/atan2f.c                      0x00000000   Number         0  atan2f_x.o ABSOLUTE
    ../mathlib/atan2f.c                      0x00000000   Number         0  atan2f.o ABSOLUTE
    ../mathlib/cosf.c                        0x00000000   Number         0  cosf_x.o ABSOLUTE
    ../mathlib/cosf.c                        0x00000000   Number         0  cosf.o ABSOLUTE
    ../mathlib/fpclassifyf.c                 0x00000000   Number         0  fpclassifyf.o ABSOLUTE
    ../mathlib/funder.c                      0x00000000   Number         0  funder.o ABSOLUTE
    ../mathlib/log2f.c                       0x00000000   Number         0  log2f_x.o ABSOLUTE
    ../mathlib/log2f.c                       0x00000000   Number         0  log2f.o ABSOLUTE
    ../mathlib/lrint.c                       0x00000000   Number         0  lrintf.o ABSOLUTE
    ../mathlib/lrint.c                       0x00000000   Number         0  lrintf_x.o ABSOLUTE
    ../mathlib/powf.c                        0x00000000   Number         0  powf_x.o ABSOLUTE
    ../mathlib/powf.c                        0x00000000   Number         0  powf.o ABSOLUTE
    ../mathlib/round.c                       0x00000000   Number         0  round.o ABSOLUTE
    ../mathlib/rredf.c                       0x00000000   Number         0  rredf.o ABSOLUTE
    ../mathlib/sinf.c                        0x00000000   Number         0  sinf.o ABSOLUTE
    ../mathlib/sinf.c                        0x00000000   Number         0  sinf_x.o ABSOLUTE
    ../mathlib/sqrtf.c                       0x00000000   Number         0  sqrtf_x.o ABSOLUTE
    ../mathlib/sqrtf.c                       0x00000000   Number         0  sqrtf.o ABSOLUTE
    dc.s                                     0x00000000   Number         0  dc.o ABSOLUTE
    src\\lib\\STM32F4xx_StdPeriph_Drivers\\src\\misc.c 0x00000000   Number         0  misc.o ABSOLUTE
    src\\lib\\STM32F4xx_StdPeriph_Drivers\\src\\stm32f4xx_dma.c 0x00000000   Number         0  stm32f4xx_dma.o ABSOLUTE
    src\\lib\\STM32F4xx_StdPeriph_Drivers\\src\\stm32f4xx_exti.c 0x00000000   Number         0  stm32f4xx_exti.o ABSOLUTE
    src\\lib\\STM32F4xx_StdPeriph_Drivers\\src\\stm32f4xx_flash.c 0x00000000   Number         0  stm32f4xx_flash.o ABSOLUTE
    src\\lib\\STM32F4xx_StdPeriph_Drivers\\src\\stm32f4xx_gpio.c 0x00000000   Number         0  stm32f4xx_gpio.o ABSOLUTE
    src\\lib\\STM32F4xx_StdPeriph_Drivers\\src\\stm32f4xx_pwr.c 0x00000000   Number         0  stm32f4xx_pwr.o ABSOLUTE
    src\\lib\\STM32F4xx_StdPeriph_Drivers\\src\\stm32f4xx_rcc.c 0x00000000   Number         0  stm32f4xx_rcc.o ABSOLUTE
    src\\lib\\STM32F4xx_StdPeriph_Drivers\\src\\stm32f4xx_spi.c 0x00000000   Number         0  stm32f4xx_spi.o ABSOLUTE
    src\\lib\\STM32F4xx_StdPeriph_Drivers\\src\\stm32f4xx_syscfg.c 0x00000000   Number         0  stm32f4xx_syscfg.o ABSOLUTE
    src\\lib\\STM32F4xx_StdPeriph_Drivers\\src\\stm32f4xx_tim.c 0x00000000   Number         0  stm32f4xx_tim.o ABSOLUTE
    src\\lib\\STM32F4xx_StdPeriph_Drivers\\src\\stm32f4xx_usart.c 0x00000000   Number         0  stm32f4xx_usart.o ABSOLUTE
    src\\quad\\config\\config_eeprom.c       0x00000000   Number         0  config_eeprom.o ABSOLUTE
    src\\quad\\config\\feature.c             0x00000000   Number         0  feature.o ABSOLUTE
    src\\quad\\drivers\\OLED\\oled.c         0x00000000   Number         0  oled.o ABSOLUTE
    src\\quad\\drivers\\accgyro_mpu.c        0x00000000   Number         0  accgyro_mpu.o ABSOLUTE
    src\\quad\\drivers\\accgyro_spi_mpu9250.c 0x00000000   Number         0  accgyro_spi_mpu9250.o ABSOLUTE
    src\\quad\\drivers\\bluetoothSerial6.c   0x00000000   Number         0  bluetoothserial6.o ABSOLUTE
    src\\quad\\drivers\\bus_spi.c            0x00000000   Number         0  bus_spi.o ABSOLUTE
    src\\quad\\drivers\\button.c             0x00000000   Number         0  button.o ABSOLUTE
    src\\quad\\drivers\\dma_stm32f4xx.c      0x00000000   Number         0  dma_stm32f4xx.o ABSOLUTE
    src\\quad\\drivers\\exti.c               0x00000000   Number         0  exti.o ABSOLUTE
    src\\quad\\drivers\\gps.c                0x00000000   Number         0  gps.o ABSOLUTE
    src\\quad\\drivers\\gyro_sync.c          0x00000000   Number         0  gyro_sync.o ABSOLUTE
    src\\quad\\drivers\\io.c                 0x00000000   Number         0  io.o ABSOLUTE
    src\\quad\\drivers\\led.c                0x00000000   Number         0  led.o ABSOLUTE
    src\\quad\\drivers\\pwm_output.c         0x00000000   Number         0  pwm_output.o ABSOLUTE
    src\\quad\\drivers\\rcc.c                0x00000000   Number         0  rcc.o ABSOLUTE
    src\\quad\\drivers\\rxSerial1Test.c      0x00000000   Number         0  rxserial1test.o ABSOLUTE
    src\\quad\\drivers\\rxSerial3Test.c      0x00000000   Number         0  rxserial3test.o ABSOLUTE
    src\\quad\\drivers\\rx_pwm.c             0x00000000   Number         0  rx_pwm.o ABSOLUTE
    src\\quad\\drivers\\serial.c             0x00000000   Number         0  serial.o ABSOLUTE
    src\\quad\\drivers\\serial_uart.c        0x00000000   Number         0  serial_uart.o ABSOLUTE
    src\\quad\\drivers\\serial_uart_stm32f4xx.c 0x00000000   Number         0  serial_uart_stm32f4xx.o ABSOLUTE
    src\\quad\\drivers\\sound_beeper.c       0x00000000   Number         0  sound_beeper.o ABSOLUTE
    src\\quad\\drivers\\system.c             0x00000000   Number         0  system.o ABSOLUTE
    src\\quad\\drivers\\timer.c              0x00000000   Number         0  timer.o ABSOLUTE
    src\\quad\\drivers\\timer_stm32f4xx.c    0x00000000   Number         0  timer_stm32f4xx.o ABSOLUTE
    src\\quad\\drivers\\ultrasound_hcsr04.c  0x00000000   Number         0  ultrasound_hcsr04.o ABSOLUTE
    src\\quad\\fc\\config.c                  0x00000000   Number         0  config.o ABSOLUTE
    src\\quad\\fc\\fc_tasks.c                0x00000000   Number         0  fc_tasks.o ABSOLUTE
    src\\quad\\flight\\imu.c                 0x00000000   Number         0  imu.o ABSOLUTE
    src\\quad\\io\\beeper.c                  0x00000000   Number         0  beeper.o ABSOLUTE
    src\\quad\\rx\\pwm.c                     0x00000000   Number         0  pwm.o ABSOLUTE
    src\\quad\\rx\\rx.c                      0x00000000   Number         0  rx.o ABSOLUTE
    src\\quad\\scheduler\\scheduler.c        0x00000000   Number         0  scheduler.o ABSOLUTE
    src\\quad\\sensors\\acceleration.c       0x00000000   Number         0  acceleration.o ABSOLUTE
    src\\quad\\sensors\\gyro.c               0x00000000   Number         0  gyro.o ABSOLUTE
    src\\quad\\sensors\\initialisation.c     0x00000000   Number         0  initialisation.o ABSOLUTE
    src\\quad\\sensors\\ultrasound.c         0x00000000   Number         0  ultrasound.o ABSOLUTE
    src\\quad\\target\\13-PID\\main.c        0x00000000   Number         0  main.o ABSOLUTE
    src\\quad\\target\\13-PID\\system_stm32f4xx.c 0x00000000   Number         0  system_stm32f4xx.o ABSOLUTE
    src\\quad\\target\\13-PID\\target.c      0x00000000   Number         0  target.o ABSOLUTE
    src\lib\STM32F4xx_StdPeriph_Drivers\src\misc.c 0x00000000   Number         0  misc.o ABSOLUTE
    src\lib\STM32F4xx_StdPeriph_Drivers\src\stm32f4xx_dma.c 0x00000000   Number         0  stm32f4xx_dma.o ABSOLUTE
    src\lib\STM32F4xx_StdPeriph_Drivers\src\stm32f4xx_exti.c 0x00000000   Number         0  stm32f4xx_exti.o ABSOLUTE
    src\lib\STM32F4xx_StdPeriph_Drivers\src\stm32f4xx_flash.c 0x00000000   Number         0  stm32f4xx_flash.o ABSOLUTE
    src\lib\STM32F4xx_StdPeriph_Drivers\src\stm32f4xx_gpio.c 0x00000000   Number         0  stm32f4xx_gpio.o ABSOLUTE
    src\lib\STM32F4xx_StdPeriph_Drivers\src\stm32f4xx_pwr.c 0x00000000   Number         0  stm32f4xx_pwr.o ABSOLUTE
    src\lib\STM32F4xx_StdPeriph_Drivers\src\stm32f4xx_rcc.c 0x00000000   Number         0  stm32f4xx_rcc.o ABSOLUTE
    src\lib\STM32F4xx_StdPeriph_Drivers\src\stm32f4xx_spi.c 0x00000000   Number         0  stm32f4xx_spi.o ABSOLUTE
    src\lib\STM32F4xx_StdPeriph_Drivers\src\stm32f4xx_syscfg.c 0x00000000   Number         0  stm32f4xx_syscfg.o ABSOLUTE
    src\lib\STM32F4xx_StdPeriph_Drivers\src\stm32f4xx_tim.c 0x00000000   Number         0  stm32f4xx_tim.o ABSOLUTE
    src\lib\STM32F4xx_StdPeriph_Drivers\src\stm32f4xx_usart.c 0x00000000   Number         0  stm32f4xx_usart.o ABSOLUTE
    src\quad\build\debug.c                   0x00000000   Number         0  debug.o ABSOLUTE
    src\quad\common\filter.c                 0x00000000   Number         0  filter.o ABSOLUTE
    src\quad\common\maths.c                  0x00000000   Number         0  maths.o ABSOLUTE
    src\quad\config\config_eeprom.c          0x00000000   Number         0  config_eeprom.o ABSOLUTE
    src\quad\config\feature.c                0x00000000   Number         0  feature.o ABSOLUTE
    src\quad\drivers\OLED\oled.c             0x00000000   Number         0  oled.o ABSOLUTE
    src\quad\drivers\accgyro_mpu.c           0x00000000   Number         0  accgyro_mpu.o ABSOLUTE
    src\quad\drivers\accgyro_spi_mpu9250.c   0x00000000   Number         0  accgyro_spi_mpu9250.o ABSOLUTE
    src\quad\drivers\bluetoothSerial6.c      0x00000000   Number         0  bluetoothserial6.o ABSOLUTE
    src\quad\drivers\bus_spi.c               0x00000000   Number         0  bus_spi.o ABSOLUTE
    src\quad\drivers\button.c                0x00000000   Number         0  button.o ABSOLUTE
    src\quad\drivers\dma_stm32f4xx.c         0x00000000   Number         0  dma_stm32f4xx.o ABSOLUTE
    src\quad\drivers\exti.c                  0x00000000   Number         0  exti.o ABSOLUTE
    src\quad\drivers\gps.c                   0x00000000   Number         0  gps.o ABSOLUTE
    src\quad\drivers\gyro_sync.c             0x00000000   Number         0  gyro_sync.o ABSOLUTE
    src\quad\drivers\io.c                    0x00000000   Number         0  io.o ABSOLUTE
    src\quad\drivers\led.c                   0x00000000   Number         0  led.o ABSOLUTE
    src\quad\drivers\pwm_output.c            0x00000000   Number         0  pwm_output.o ABSOLUTE
    src\quad\drivers\rcc.c                   0x00000000   Number         0  rcc.o ABSOLUTE
    src\quad\drivers\rxSerial1Test.c         0x00000000   Number         0  rxserial1test.o ABSOLUTE
    src\quad\drivers\rxSerial3Test.c         0x00000000   Number         0  rxserial3test.o ABSOLUTE
    src\quad\drivers\rx_pwm.c                0x00000000   Number         0  rx_pwm.o ABSOLUTE
    src\quad\drivers\sdcard_standard.c       0x00000000   Number         0  sdcard_standard.o ABSOLUTE
    src\quad\drivers\serial.c                0x00000000   Number         0  serial.o ABSOLUTE
    src\quad\drivers\serial_uart.c           0x00000000   Number         0  serial_uart.o ABSOLUTE
    src\quad\drivers\serial_uart_stm32f4xx.c 0x00000000   Number         0  serial_uart_stm32f4xx.o ABSOLUTE
    src\quad\drivers\sound_beeper.c          0x00000000   Number         0  sound_beeper.o ABSOLUTE
    src\quad\drivers\system.c                0x00000000   Number         0  system.o ABSOLUTE
    src\quad\drivers\timer.c                 0x00000000   Number         0  timer.o ABSOLUTE
    src\quad\drivers\timer_stm32f4xx.c       0x00000000   Number         0  timer_stm32f4xx.o ABSOLUTE
    src\quad\drivers\ultrasound_hcsr04.c     0x00000000   Number         0  ultrasound_hcsr04.o ABSOLUTE
    src\quad\fc\config.c                     0x00000000   Number         0  config.o ABSOLUTE
    src\quad\fc\fc_tasks.c                   0x00000000   Number         0  fc_tasks.o ABSOLUTE
    src\quad\fc\runtime_config.c             0x00000000   Number         0  runtime_config.o ABSOLUTE
    src\quad\flight\imu.c                    0x00000000   Number         0  imu.o ABSOLUTE
    src\quad\io\beeper.c                     0x00000000   Number         0  beeper.o ABSOLUTE
    src\quad\rx\pwm.c                        0x00000000   Number         0  pwm.o ABSOLUTE
    src\quad\rx\rx.c                         0x00000000   Number         0  rx.o ABSOLUTE
    src\quad\scheduler\scheduler.c           0x00000000   Number         0  scheduler.o ABSOLUTE
    src\quad\sensors\acceleration.c          0x00000000   Number         0  acceleration.o ABSOLUTE
    src\quad\sensors\boardAlignment.c        0x00000000   Number         0  boardalignment.o ABSOLUTE
    src\quad\sensors\compass.c               0x00000000   Number         0  compass.o ABSOLUTE
    src\quad\sensors\gyro.c                  0x00000000   Number         0  gyro.o ABSOLUTE
    src\quad\sensors\initialisation.c        0x00000000   Number         0  initialisation.o ABSOLUTE
    src\quad\sensors\ultrasound.c            0x00000000   Number         0  ultrasound.o ABSOLUTE
    src\quad\startup\startup_stm32f407xx.s   0x00000000   Number         0  startup_stm32f407xx.o ABSOLUTE
    src\quad\target\13-PID\main.c            0x00000000   Number         0  main.o ABSOLUTE
    src\quad\target\13-PID\system_stm32f4xx.c 0x00000000   Number         0  system_stm32f4xx.o ABSOLUTE
    src\quad\target\13-PID\target.c          0x00000000   Number         0  target.o ABSOLUTE
    RESET                                    0x08000000   Section      392  startup_stm32f407xx.o(RESET)
    !!!main                                  0x08000188   Section        8  __main.o(!!!main)
    !!!scatter                               0x08000190   Section       52  __scatter.o(!!!scatter)
    !!dczerorl2                              0x080001c4   Section       90  __dczerorl2.o(!!dczerorl2)
    !!handler_zi                             0x08000220   Section       28  __scatter_zi.o(!!handler_zi)
    .ARM.Collect$$_printf_percent$$00000000  0x0800023c   Section        0  _printf_percent.o(.ARM.Collect$$_printf_percent$$00000000)
    .ARM.Collect$$_printf_percent$$00000009  0x0800023c   Section        6  _printf_d.o(.ARM.Collect$$_printf_percent$$00000009)
    .ARM.Collect$$_printf_percent$$00000014  0x08000242   Section        6  _printf_s.o(.ARM.Collect$$_printf_percent$$00000014)
    .ARM.Collect$$_printf_percent$$00000017  0x08000248   Section        4  _printf_percent_end.o(.ARM.Collect$$_printf_percent$$00000017)
    .ARM.Collect$$libinit$$00000000          0x0800024c   Section        2  libinit.o(.ARM.Collect$$libinit$$00000000)
    .ARM.Collect$$libinit$$00000001          0x0800024e   Section        4  libinit2.o(.ARM.Collect$$libinit$$00000001)
    .ARM.Collect$$libinit$$00000004          0x08000252   Section        0  libinit2.o(.ARM.Collect$$libinit$$00000004)
    .ARM.Collect$$libinit$$0000000A          0x08000252   Section        0  libinit2.o(.ARM.Collect$$libinit$$0000000A)
    .ARM.Collect$$libinit$$0000000C          0x08000252   Section        0  libinit2.o(.ARM.Collect$$libinit$$0000000C)
    .ARM.Collect$$libinit$$0000000E          0x08000252   Section        0  libinit2.o(.ARM.Collect$$libinit$$0000000E)
    .ARM.Collect$$libinit$$00000011          0x08000252   Section        0  libinit2.o(.ARM.Collect$$libinit$$00000011)
    .ARM.Collect$$libinit$$00000013          0x08000252   Section        0  libinit2.o(.ARM.Collect$$libinit$$00000013)
    .ARM.Collect$$libinit$$00000015          0x08000252   Section        0  libinit2.o(.ARM.Collect$$libinit$$00000015)
    .ARM.Collect$$libinit$$00000017          0x08000252   Section        0  libinit2.o(.ARM.Collect$$libinit$$00000017)
    .ARM.Collect$$libinit$$00000019          0x08000252   Section        0  libinit2.o(.ARM.Collect$$libinit$$00000019)
    .ARM.Collect$$libinit$$0000001B          0x08000252   Section        0  libinit2.o(.ARM.Collect$$libinit$$0000001B)
    .ARM.Collect$$libinit$$0000001D          0x08000252   Section        0  libinit2.o(.ARM.Collect$$libinit$$0000001D)
    .ARM.Collect$$libinit$$0000001F          0x08000252   Section        0  libinit2.o(.ARM.Collect$$libinit$$0000001F)
    .ARM.Collect$$libinit$$00000021          0x08000252   Section        0  libinit2.o(.ARM.Collect$$libinit$$00000021)
    .ARM.Collect$$libinit$$00000023          0x08000252   Section        0  libinit2.o(.ARM.Collect$$libinit$$00000023)
    .ARM.Collect$$libinit$$00000025          0x08000252   Section        0  libinit2.o(.ARM.Collect$$libinit$$00000025)
    .ARM.Collect$$libinit$$0000002C          0x08000252   Section        0  libinit2.o(.ARM.Collect$$libinit$$0000002C)
    .ARM.Collect$$libinit$$0000002E          0x08000252   Section        0  libinit2.o(.ARM.Collect$$libinit$$0000002E)
    .ARM.Collect$$libinit$$00000030          0x08000252   Section        0  libinit2.o(.ARM.Collect$$libinit$$00000030)
    .ARM.Collect$$libinit$$00000032          0x08000252   Section        0  libinit2.o(.ARM.Collect$$libinit$$00000032)
    .ARM.Collect$$libinit$$00000033          0x08000252   Section        2  libinit2.o(.ARM.Collect$$libinit$$00000033)
    .ARM.Collect$$libshutdown$$00000000      0x08000254   Section        2  libshutdown.o(.ARM.Collect$$libshutdown$$00000000)
    .ARM.Collect$$libshutdown$$00000002      0x08000256   Section        0  libshutdown2.o(.ARM.Collect$$libshutdown$$00000002)
    .ARM.Collect$$libshutdown$$00000004      0x08000256   Section        0  libshutdown2.o(.ARM.Collect$$libshutdown$$00000004)
    .ARM.Collect$$libshutdown$$00000007      0x08000256   Section        0  libshutdown2.o(.ARM.Collect$$libshutdown$$00000007)
    .ARM.Collect$$libshutdown$$0000000A      0x08000256   Section        0  libshutdown2.o(.ARM.Collect$$libshutdown$$0000000A)
    .ARM.Collect$$libshutdown$$0000000C      0x08000256   Section        0  libshutdown2.o(.ARM.Collect$$libshutdown$$0000000C)
    .ARM.Collect$$libshutdown$$0000000F      0x08000256   Section        0  libshutdown2.o(.ARM.Collect$$libshutdown$$0000000F)
    .ARM.Collect$$libshutdown$$00000010      0x08000256   Section        2  libshutdown2.o(.ARM.Collect$$libshutdown$$00000010)
    .ARM.Collect$$rtentry$$00000000          0x08000258   Section        0  __rtentry.o(.ARM.Collect$$rtentry$$00000000)
    .ARM.Collect$$rtentry$$00000002          0x08000258   Section        0  __rtentry2.o(.ARM.Collect$$rtentry$$00000002)
    .ARM.Collect$$rtentry$$00000004          0x08000258   Section        6  __rtentry4.o(.ARM.Collect$$rtentry$$00000004)
    .ARM.Collect$$rtentry$$00000009          0x0800025e   Section        0  __rtentry2.o(.ARM.Collect$$rtentry$$00000009)
    .ARM.Collect$$rtentry$$0000000A          0x0800025e   Section        4  __rtentry2.o(.ARM.Collect$$rtentry$$0000000A)
    .ARM.Collect$$rtentry$$0000000C          0x08000262   Section        0  __rtentry2.o(.ARM.Collect$$rtentry$$0000000C)
    .ARM.Collect$$rtentry$$0000000D          0x08000262   Section        8  __rtentry2.o(.ARM.Collect$$rtentry$$0000000D)
    .ARM.Collect$$rtexit$$00000000           0x0800026a   Section        2  rtexit.o(.ARM.Collect$$rtexit$$00000000)
    .ARM.Collect$$rtexit$$00000002           0x0800026c   Section        0  rtexit2.o(.ARM.Collect$$rtexit$$00000002)
    .ARM.Collect$$rtexit$$00000003           0x0800026c   Section        4  rtexit2.o(.ARM.Collect$$rtexit$$00000003)
    .ARM.Collect$$rtexit$$00000004           0x08000270   Section        6  rtexit2.o(.ARM.Collect$$rtexit$$00000004)
    .text                                    0x08000278   Section       64  startup_stm32f407xx.o(.text)
    $v0                                      0x08000278   Number         0  startup_stm32f407xx.o(.text)
    .text                                    0x080002b8   Section        0  noretval__2printf.o(.text)
    .text                                    0x080002d0   Section        0  __printf.o(.text)
    .text                                    0x08000338   Section        0  _printf_str.o(.text)
    .text                                    0x0800038c   Section        0  _printf_dec.o(.text)
    .text                                    0x08000404   Section      100  rt_memcpy_w.o(.text)
    .text                                    0x08000468   Section      122  rt_memmove_w.o(.text)
    .text                                    0x080004e2   Section       16  aeabi_memset.o(.text)
    .text                                    0x080004f2   Section       68  rt_memclr.o(.text)
    .text                                    0x08000536   Section       78  rt_memclr_w.o(.text)
    .text                                    0x08000584   Section       86  strncpy.o(.text)
    .text                                    0x080005da   Section        0  heapauxi.o(.text)
    .text                                    0x080005e0   Section        0  _rserrno.o(.text)
    .text                                    0x080005f6   Section        0  _printf_intcommon.o(.text)
    .text                                    0x080006a8   Section        0  _printf_char.o(.text)
    .text                                    0x080006d4   Section        0  _printf_char_file.o(.text)
    .text                                    0x080006f8   Section        8  rt_errno_addr_intlibspace.o(.text)
    .text                                    0x08000700   Section        0  _printf_char_common.o(.text)
    _printf_input_char                       0x08000701   Thumb Code    10  _printf_char_common.o(.text)
    .text                                    0x08000730   Section        0  ferror.o(.text)
    .text                                    0x08000738   Section        8  libspace.o(.text)
    .text                                    0x08000740   Section       74  sys_stackheap_outer.o(.text)
    .text                                    0x0800078a   Section        0  exit.o(.text)
    .text                                    0x0800079c   Section        0  sys_exit.o(.text)
    .text                                    0x080007a8   Section        2  use_no_semi.o(.text)
    .text                                    0x080007aa   Section        0  indicate_semi.o(.text)
    i.DMA1_Stream0_IRQHandler                0x080007ac   Section        0  dma_stm32f4xx.o(i.DMA1_Stream0_IRQHandler)
    i.DMA1_Stream1_IRQHandler                0x080007bc   Section        0  dma_stm32f4xx.o(i.DMA1_Stream1_IRQHandler)
    i.DMA1_Stream2_IRQHandler                0x080007d0   Section        0  dma_stm32f4xx.o(i.DMA1_Stream2_IRQHandler)
    i.DMA1_Stream3_IRQHandler                0x080007e4   Section        0  dma_stm32f4xx.o(i.DMA1_Stream3_IRQHandler)
    i.DMA1_Stream4_IRQHandler                0x080007f8   Section        0  dma_stm32f4xx.o(i.DMA1_Stream4_IRQHandler)
    i.DMA1_Stream5_IRQHandler                0x0800080c   Section        0  dma_stm32f4xx.o(i.DMA1_Stream5_IRQHandler)
    i.DMA1_Stream6_IRQHandler                0x08000820   Section        0  dma_stm32f4xx.o(i.DMA1_Stream6_IRQHandler)
    i.DMA1_Stream7_IRQHandler                0x08000834   Section        0  dma_stm32f4xx.o(i.DMA1_Stream7_IRQHandler)
    i.DMA2_Stream0_IRQHandler                0x08000848   Section        0  dma_stm32f4xx.o(i.DMA2_Stream0_IRQHandler)
    i.DMA2_Stream1_IRQHandler                0x0800085c   Section        0  dma_stm32f4xx.o(i.DMA2_Stream1_IRQHandler)
    i.DMA2_Stream2_IRQHandler                0x08000870   Section        0  dma_stm32f4xx.o(i.DMA2_Stream2_IRQHandler)
    i.DMA2_Stream3_IRQHandler                0x08000888   Section        0  dma_stm32f4xx.o(i.DMA2_Stream3_IRQHandler)
    i.DMA2_Stream4_IRQHandler                0x080008a0   Section        0  dma_stm32f4xx.o(i.DMA2_Stream4_IRQHandler)
    i.DMA2_Stream5_IRQHandler                0x080008b8   Section        0  dma_stm32f4xx.o(i.DMA2_Stream5_IRQHandler)
    i.DMA2_Stream6_IRQHandler                0x080008d0   Section        0  dma_stm32f4xx.o(i.DMA2_Stream6_IRQHandler)
    i.DMA2_Stream7_IRQHandler                0x080008e8   Section        0  dma_stm32f4xx.o(i.DMA2_Stream7_IRQHandler)
    i.DMA_Cmd                                0x08000900   Section        0  stm32f4xx_dma.o(i.DMA_Cmd)
    i.DMA_DeInit                             0x08000914   Section        0  stm32f4xx_dma.o(i.DMA_DeInit)
    i.DMA_GetCurrDataCounter                 0x08000a38   Section        0  stm32f4xx_dma.o(i.DMA_GetCurrDataCounter)
    i.DMA_ITConfig                           0x08000a3e   Section        0  stm32f4xx_dma.o(i.DMA_ITConfig)
    i.DMA_Init                               0x08000a6c   Section        0  stm32f4xx_dma.o(i.DMA_Init)
    i.DMA_MemoryTargetConfig                 0x08000ac0   Section        0  stm32f4xx_dma.o(i.DMA_MemoryTargetConfig)
    i.DMA_SetCurrDataCounter                 0x08000aca   Section        0  stm32f4xx_dma.o(i.DMA_SetCurrDataCounter)
    i.DMA_StructInit                         0x08000ace   Section        0  stm32f4xx_dma.o(i.DMA_StructInit)
    i.EXTI0_IRQHandler                       0x08000af0   Section        0  exti.o(i.EXTI0_IRQHandler)
    i.EXTI15_10_IRQHandler                   0x08000af4   Section        0  exti.o(i.EXTI15_10_IRQHandler)
    i.EXTI1_IRQHandler                       0x08000af8   Section        0  exti.o(i.EXTI1_IRQHandler)
    i.EXTI2_IRQHandler                       0x08000afc   Section        0  exti.o(i.EXTI2_IRQHandler)
    i.EXTI3_IRQHandler                       0x08000b00   Section        0  exti.o(i.EXTI3_IRQHandler)
    i.EXTI4_IRQHandler                       0x08000b04   Section        0  exti.o(i.EXTI4_IRQHandler)
    i.EXTI9_5_IRQHandler                     0x08000b08   Section        0  exti.o(i.EXTI9_5_IRQHandler)
    i.EXTIInit                               0x08000b0c   Section        0  exti.o(i.EXTIInit)
    i.EXTI_IRQHandler                        0x08000b34   Section        0  exti.o(i.EXTI_IRQHandler)
    i.EnableGPIOClk                          0x08000b74   Section        0  main.o(i.EnableGPIOClk)
    i.GPIO_Init                              0x08000c08   Section        0  stm32f4xx_gpio.o(i.GPIO_Init)
    i.GPIO_PinAFConfig                       0x08000caa   Section        0  stm32f4xx_gpio.o(i.GPIO_PinAFConfig)
    i.GPIO_StructInit                        0x08000cca   Section        0  stm32f4xx_gpio.o(i.GPIO_StructInit)
    i.IOConfigGPIO                           0x08000cdc   Section        0  io.o(i.IOConfigGPIO)
    i.IOConfigGPIOAF                         0x08000d24   Section        0  io.o(i.IOConfigGPIOAF)
    i.IOGetByTag                             0x08000d80   Section        0  io.o(i.IOGetByTag)
    i.IOGlobalInit                           0x08000dec   Section        0  io.o(i.IOGlobalInit)
    i.IOHi                                   0x08000e2c   Section        0  io.o(i.IOHi)
    i.IOInit                                 0x08000e38   Section        0  io.o(i.IOInit)
    i.IOLo                                   0x08000e3e   Section        0  io.o(i.IOLo)
    i.IOWrite                                0x08000e4c   Section        0  io.o(i.IOWrite)
    i.IO_GPIOPinIdx                          0x08000e5e   Section        0  io.o(i.IO_GPIOPinIdx)
    i.IO_GPIOPortIdx                         0x08000e74   Section        0  io.o(i.IO_GPIOPortIdx)
    i.IO_GPIO_PinSource                      0x08000e8c   Section        0  io.o(i.IO_GPIO_PinSource)
    i.LedInit                                0x08000e90   Section        0  led.o(i.LedInit)
    i.LedSet                                 0x08000f18   Section        0  led.o(i.LedSet)
    i.NVIC_Init                              0x08000f40   Section        0  misc.o(i.NVIC_Init)
    i.NVIC_PriorityGroupConfig               0x08000fa4   Section        0  misc.o(i.NVIC_PriorityGroupConfig)
    i.OLED_Clear                             0x08000fb8   Section        0  oled.o(i.OLED_Clear)
    i.OLED_DrawPoint                         0x08000fe4   Section        0  oled.o(i.OLED_DrawPoint)
    i.OLED_Refresh_Gram                      0x08001020   Section        0  oled.o(i.OLED_Refresh_Gram)
    i.OLED_ShowChar                          0x0800106c   Section        0  oled.o(i.OLED_ShowChar)
    i.OLED_ShowNumber                        0x080010fc   Section        0  oled.o(i.OLED_ShowNumber)
    i.OLED_ShowString                        0x08001174   Section        0  oled.o(i.OLED_ShowString)
    i.OLED_WR_Byte                           0x080011b4   Section        0  oled.o(i.OLED_WR_Byte)
    i.RCC_AHB1PeriphClockCmd                 0x08001228   Section        0  stm32f4xx_rcc.o(i.RCC_AHB1PeriphClockCmd)
    i.RCC_AHB1PeriphResetCmd                 0x08001240   Section        0  stm32f4xx_rcc.o(i.RCC_AHB1PeriphResetCmd)
    i.RCC_AHB2PeriphClockCmd                 0x08001258   Section        0  stm32f4xx_rcc.o(i.RCC_AHB2PeriphClockCmd)
    i.RCC_APB1PeriphClockCmd                 0x08001270   Section        0  stm32f4xx_rcc.o(i.RCC_APB1PeriphClockCmd)
    i.RCC_APB1PeriphResetCmd                 0x08001288   Section        0  stm32f4xx_rcc.o(i.RCC_APB1PeriphResetCmd)
    i.RCC_APB2PeriphClockCmd                 0x080012a0   Section        0  stm32f4xx_rcc.o(i.RCC_APB2PeriphClockCmd)
    i.RCC_APB2PeriphResetCmd                 0x080012b8   Section        0  stm32f4xx_rcc.o(i.RCC_APB2PeriphResetCmd)
    i.RCC_ClearFlag                          0x080012d0   Section        0  stm32f4xx_rcc.o(i.RCC_ClearFlag)
    i.RCC_ClockCmd                           0x080012e0   Section        0  rcc.o(i.RCC_ClockCmd)
    i.RCC_GetClocksFreq                      0x08001304   Section        0  stm32f4xx_rcc.o(i.RCC_GetClocksFreq)
    i.RCC_ResetCmd                           0x08001394   Section        0  rcc.o(i.RCC_ResetCmd)
    i.Read_Encoder                           0x080013b8   Section        0  fc_tasks.o(i.Read_Encoder)
    i.ResetBeeperConfig                      0x080013ec   Section        0  config.o(i.ResetBeeperConfig)
    i.ResetLedStatusConfig                   0x080013f8   Section        0  config.o(i.ResetLedStatusConfig)
    i.ResetRollAndPitchTrims                 0x08001418   Section        0  acceleration.o(i.ResetRollAndPitchTrims)
    i.ResetSerialConfig                      0x08001420   Section        0  config.o(i.ResetSerialConfig)
    i.ResetSerialPinConfig                   0x0800145c   Section        0  config.o(i.ResetSerialPinConfig)
    i.SPI_Cmd                                0x080014c0   Section        0  stm32f4xx_spi.o(i.SPI_Cmd)
    i.SPI_I2S_DeInit                         0x080014d4   Section        0  stm32f4xx_spi.o(i.SPI_I2S_DeInit)
    i.SPI_Init                               0x08001558   Section        0  stm32f4xx_spi.o(i.SPI_Init)
    i.SetSysClock                            0x08001590   Section        0  system_stm32f4xx.o(i.SetSysClock)
    i.SysTick_Handler                        0x08001644   Section        0  system.o(i.SysTick_Handler)
    i.SysTick_Init                           0x08001668   Section        0  system.o(i.SysTick_Init)
    i.SystemInit                             0x0800168c   Section        0  system_stm32f4xx.o(i.SystemInit)
    i.TI1_Config                             0x080016e8   Section        0  stm32f4xx_tim.o(i.TI1_Config)
    TI1_Config                               0x080016e9   Thumb Code    46  stm32f4xx_tim.o(i.TI1_Config)
    i.TI2_Config                             0x08001716   Section        0  stm32f4xx_tim.o(i.TI2_Config)
    TI2_Config                               0x08001717   Thumb Code    54  stm32f4xx_tim.o(i.TI2_Config)
    i.TIM1_CC_IRQHandler                     0x0800174c   Section        0  timer.o(i.TIM1_CC_IRQHandler)
    i.TIM2_IRQHandler                        0x0800175c   Section        0  timer.o(i.TIM2_IRQHandler)
    i.TIM3_IRQHandler                        0x0800176c   Section        0  timer.o(i.TIM3_IRQHandler)
    i.TIM4_IRQHandler                        0x0800177c   Section        0  timer.o(i.TIM4_IRQHandler)
    i.TIM5_IRQHandler                        0x0800178c   Section        0  timer.o(i.TIM5_IRQHandler)
    i.TIM_Cmd                                0x0800179c   Section        0  stm32f4xx_tim.o(i.TIM_Cmd)
    i.TIM_CtrlPWMOutputs                     0x080017b0   Section        0  stm32f4xx_tim.o(i.TIM_CtrlPWMOutputs)
    i.TIM_ICInit                             0x080017c6   Section        0  stm32f4xx_tim.o(i.TIM_ICInit)
    i.TIM_ICStructInit                       0x08001872   Section        0  stm32f4xx_tim.o(i.TIM_ICStructInit)
    i.TIM_OC1Init                            0x08001884   Section        0  stm32f4xx_tim.o(i.TIM_OC1Init)
    i.TIM_OC1PreloadConfig                   0x080018e4   Section        0  stm32f4xx_tim.o(i.TIM_OC1PreloadConfig)
    i.TIM_OC2Init                            0x080018f0   Section        0  stm32f4xx_tim.o(i.TIM_OC2Init)
    i.TIM_OC2PreloadConfig                   0x08001970   Section        0  stm32f4xx_tim.o(i.TIM_OC2PreloadConfig)
    i.TIM_OC3Init                            0x08001984   Section        0  stm32f4xx_tim.o(i.TIM_OC3Init)
    i.TIM_OC3PreloadConfig                   0x08001a00   Section        0  stm32f4xx_tim.o(i.TIM_OC3PreloadConfig)
    i.TIM_OC4Init                            0x08001a0c   Section        0  stm32f4xx_tim.o(i.TIM_OC4Init)
    i.TIM_OC4PreloadConfig                   0x08001a6c   Section        0  stm32f4xx_tim.o(i.TIM_OC4PreloadConfig)
    i.TIM_OCStructInit                       0x08001a80   Section        0  stm32f4xx_tim.o(i.TIM_OCStructInit)
    i.TIM_SelectSlaveMode                    0x08001a94   Section        0  stm32f4xx_tim.o(i.TIM_SelectSlaveMode)
    i.TIM_SetIC1Prescaler                    0x08001aa4   Section        0  stm32f4xx_tim.o(i.TIM_SetIC1Prescaler)
    i.TIM_SetIC2Prescaler                    0x08001ab4   Section        0  stm32f4xx_tim.o(i.TIM_SetIC2Prescaler)
    i.TIM_SetIC3Prescaler                    0x08001acc   Section        0  stm32f4xx_tim.o(i.TIM_SetIC3Prescaler)
    i.TIM_SetIC4Prescaler                    0x08001adc   Section        0  stm32f4xx_tim.o(i.TIM_SetIC4Prescaler)
    i.TIM_TimeBaseInit                       0x08001af4   Section        0  stm32f4xx_tim.o(i.TIM_TimeBaseInit)
    i.TIM_TimeBaseStructInit                 0x08001b70   Section        0  stm32f4xx_tim.o(i.TIM_TimeBaseStructInit)
    i.USART1_IRQHandler                      0x08001b84   Section        0  serial_uart_stm32f4xx.o(i.USART1_IRQHandler)
    i.USART3_IRQHandler                      0x08001b94   Section        0  serial_uart_stm32f4xx.o(i.USART3_IRQHandler)
    i.USART6_IRQHandler                      0x08001ba4   Section        0  serial_uart_stm32f4xx.o(i.USART6_IRQHandler)
    i.USART_ClearITPendingBit                0x08001bb4   Section        0  stm32f4xx_usart.o(i.USART_ClearITPendingBit)
    i.USART_Cmd                              0x08001bc0   Section        0  stm32f4xx_usart.o(i.USART_Cmd)
    i.USART_DMACmd                           0x08001bd4   Section        0  stm32f4xx_usart.o(i.USART_DMACmd)
    i.USART_GetITStatus                      0x08001be4   Section        0  stm32f4xx_usart.o(i.USART_GetITStatus)
    i.USART_HalfDuplexCmd                    0x08001c22   Section        0  stm32f4xx_usart.o(i.USART_HalfDuplexCmd)
    i.USART_ITConfig                         0x08001c36   Section        0  stm32f4xx_usart.o(i.USART_ITConfig)
    i.USART_Init                             0x08001c68   Section        0  stm32f4xx_usart.o(i.USART_Init)
    i.USART_SendData                         0x08001d14   Section        0  stm32f4xx_usart.o(i.USART_SendData)
    i.__ARM_fpclassifyf                      0x08001d1c   Section        0  fpclassifyf.o(i.__ARM_fpclassifyf)
    i.__hardfp_acosf                         0x08001d44   Section        0  acosf.o(i.__hardfp_acosf)
    i.__hardfp_atan2f                        0x08001e5c   Section        0  atan2f.o(i.__hardfp_atan2f)
    i.__hardfp_cosf                          0x080020ac   Section        0  cosf.o(i.__hardfp_cosf)
    i.__hardfp_lrintf                        0x080021fc   Section        0  lrintf.o(i.__hardfp_lrintf)
    i.__hardfp_round                         0x08002248   Section        0  round.o(i.__hardfp_round)
    i.__hardfp_sinf                          0x08002328   Section        0  sinf.o(i.__hardfp_sinf)
    i.__hardfp_sqrtf                         0x080024b8   Section        0  sqrtf.o(i.__hardfp_sqrtf)
    i.__mathlib_flt_infnan                   0x080024f2   Section        0  funder.o(i.__mathlib_flt_infnan)
    i.__mathlib_flt_infnan2                  0x080024f8   Section        0  funder.o(i.__mathlib_flt_infnan2)
    i.__mathlib_flt_invalid                  0x08002500   Section        0  funder.o(i.__mathlib_flt_invalid)
    i.__mathlib_flt_underflow                0x08002510   Section        0  funder.o(i.__mathlib_flt_underflow)
    i.__mathlib_rredf2                       0x08002520   Section        0  rredf.o(i.__mathlib_rredf2)
    i.accSetCalibrationCycles                0x08002674   Section        0  acceleration.o(i.accSetCalibrationCycles)
    i.accUpdate                              0x08002680   Section        0  acceleration.o(i.accUpdate)
    i.activateConfig                         0x08002728   Section        0  config.o(i.activateConfig)
    i.alignBoard                             0x08002758   Section        0  boardalignment.o(i.alignBoard)
    alignBoard                               0x08002759   Thumb Code   150  boardalignment.o(i.alignBoard)
    i.alignSensors                           0x080027f4   Section        0  boardalignment.o(i.alignSensors)
    i.beeperInit                             0x08002860   Section        0  sound_beeper.o(i.beeperInit)
    i.biquadFilterApply                      0x080028a0   Section        0  filter.o(i.biquadFilterApply)
    i.biquadFilterInit                       0x080028e4   Section        0  filter.o(i.biquadFilterInit)
    i.biquadFilterInitLPF                    0x080029d4   Section        0  filter.o(i.biquadFilterInitLPF)
    i.bluetoothSerial6Init                   0x08002a08   Section        0  bluetoothserial6.o(i.bluetoothSerial6Init)
    i.calculateAccZLowPassFilterRCTimeConstant 0x08002a34   Section        0  imu.o(i.calculateAccZLowPassFilterRCTimeConstant)
    i.calculateThrottleAngleScale            0x08002a4c   Section        0  imu.o(i.calculateThrottleAngleScale)
    i.checkEEPROMContainsValidData           0x08002a70   Section        0  config.o(i.checkEEPROMContainsValidData)
    i.configTimeBase4Encoder                 0x08002a74   Section        0  timer.o(i.configTimeBase4Encoder)
    i.constrain                              0x08002aa0   Section        0  config.o(i.constrain)
    constrain                                0x08002aa1   Thumb Code    16  config.o(i.constrain)
    i.cosApprox                              0x08002ab0   Section        0  maths.o(i.cosApprox)
    i.createDefaultConfig                    0x08002ac0   Section        0  config.o(i.createDefaultConfig)
    i.dcBrushedMotorInit                     0x08002cac   Section        0  pwm_output.o(i.dcBrushedMotorInit)
    i.degreesToRadians                       0x08002e04   Section        0  maths.o(i.degreesToRadians)
    i.delay                                  0x08002e1c   Section        0  system.o(i.delay)
    i.delayMicroseconds                      0x08002e34   Section        0  system.o(i.delayMicroseconds)
    i.devClear                               0x08002e4c   Section        0  maths.o(i.devClear)
    i.devPush                                0x08002e54   Section        0  maths.o(i.devPush)
    i.devStandardDeviation                   0x08002eac   Section        0  maths.o(i.devStandardDeviation)
    i.devVariance                            0x08002ebc   Section        0  maths.o(i.devVariance)
    i.fcTasksInit                            0x08002ee0   Section        0  fc_tasks.o(i.fcTasksInit)
    i.featureClear                           0x08002ef4   Section        0  feature.o(i.featureClear)
    i.featureConfigured                      0x08002f04   Section        0  feature.o(i.featureConfigured)
    i.featureSet                             0x08002f18   Section        0  feature.o(i.featureSet)
    i.findNextSerialPortConfig               0x08002f28   Section        0  serial.o(i.findNextSerialPortConfig)
    i.findSerialPortConfig                   0x08002f50   Section        0  serial.o(i.findSerialPortConfig)
    i.findSerialPortIndexByIdentifier        0x08002f60   Section        0  serial.o(i.findSerialPortIndexByIdentifier)
    i.findSerialPortUsageByIdentifier        0x08002f7c   Section        0  serial.o(i.findSerialPortUsageByIdentifier)
    i.fputc                                  0x08002fa4   Section        0  main.o(i.fputc)
    i.gyroCalculateCalibratingCycles         0x08002fb4   Section        0  gyro.o(i.gyroCalculateCalibratingCycles)
    gyroCalculateCalibratingCycles           0x08002fb5   Thumb Code    30  gyro.o(i.gyroCalculateCalibratingCycles)
    i.gyroSetCalibrationCycles               0x08002fd8   Section        0  gyro.o(i.gyroSetCalibrationCycles)
    i.gyroUpdate                             0x08002fe8   Section        0  gyro.o(i.gyroUpdate)
    i.hcsr04_ultrasound1_get_distance        0x0800313c   Section        0  ultrasound_hcsr04.o(i.hcsr04_ultrasound1_get_distance)
    i.hcsr04_ultrasound1_start_sequence      0x0800314c   Section        0  ultrasound_hcsr04.o(i.hcsr04_ultrasound1_start_sequence)
    i.hcsr04_ultrasound2_get_distance        0x0800317c   Section        0  ultrasound_hcsr04.o(i.hcsr04_ultrasound2_get_distance)
    i.hcsr04_ultrasound2_start_sequence      0x0800318c   Section        0  ultrasound_hcsr04.o(i.hcsr04_ultrasound2_start_sequence)
    i.hcsr04_ultrasound3_get_distance        0x080031bc   Section        0  ultrasound_hcsr04.o(i.hcsr04_ultrasound3_get_distance)
    i.hcsr04_ultrasound3_start_sequence      0x080031cc   Section        0  ultrasound_hcsr04.o(i.hcsr04_ultrasound3_start_sequence)
    i.hcsr04_ultrasound4_get_distance        0x08003200   Section        0  ultrasound_hcsr04.o(i.hcsr04_ultrasound4_get_distance)
    i.hcsr04_ultrasound4_start_sequence      0x08003210   Section        0  ultrasound_hcsr04.o(i.hcsr04_ultrasound4_start_sequence)
    i.hcsr04_ultrasound5_get_distance        0x08003244   Section        0  ultrasound_hcsr04.o(i.hcsr04_ultrasound5_get_distance)
    i.hcsr04_ultrasound5_start_sequence      0x08003254   Section        0  ultrasound_hcsr04.o(i.hcsr04_ultrasound5_start_sequence)
    i.hcsr04_ultrasound6_get_distance        0x08003288   Section        0  ultrasound_hcsr04.o(i.hcsr04_ultrasound6_get_distance)
    i.hcsr04_ultrasound6_start_sequence      0x08003298   Section        0  ultrasound_hcsr04.o(i.hcsr04_ultrasound6_start_sequence)
    i.imuCalculateEstimatedAttitude          0x080032cc   Section        0  imu.o(i.imuCalculateEstimatedAttitude)
    imuCalculateEstimatedAttitude            0x080032cd   Thumb Code   186  imu.o(i.imuCalculateEstimatedAttitude)
    i.imuComputeRotationMatrix               0x080033a4   Section        0  imu.o(i.imuComputeRotationMatrix)
    imuComputeRotationMatrix                 0x080033a5   Thumb Code   178  imu.o(i.imuComputeRotationMatrix)
    i.imuConfigure                           0x08003460   Section        0  imu.o(i.imuConfigure)
    i.imuInit                                0x080034bc   Section        0  imu.o(i.imuInit)
    i.imuMahonyAHRSUpdate                    0x0800350c   Section        0  imu.o(i.imuMahonyAHRSUpdate)
    imuMahonyAHRSUpdate                      0x0800350d   Thumb Code   666  imu.o(i.imuMahonyAHRSUpdate)
    i.imuUpdateEulerAngles                   0x080037c0   Section        0  imu.o(i.imuUpdateEulerAngles)
    imuUpdateEulerAngles                     0x080037c1   Thumb Code   140  imu.o(i.imuUpdateEulerAngles)
    i.initEEPROM                             0x08003860   Section        0  config_eeprom.o(i.initEEPROM)
    i.intFeatureClearAll                     0x08003862   Section        0  feature.o(i.intFeatureClearAll)
    i.intFeatureSet                          0x08003868   Section        0  feature.o(i.intFeatureSet)
    i.invSqrt                                0x08003870   Section        0  imu.o(i.invSqrt)
    invSqrt                                  0x08003871   Thumb Code    20  imu.o(i.invSqrt)
    i.isAccelerationCalibrationComplete      0x08003884   Section        0  acceleration.o(i.isAccelerationCalibrationComplete)
    i.isGyroCalibrationComplete              0x08003898   Section        0  gyro.o(i.isGyroCalibrationComplete)
    i.isOnFinalGyroCalibrationCycle          0x080038ac   Section        0  gyro.o(i.isOnFinalGyroCalibrationCycle)
    isOnFinalGyroCalibrationCycle            0x080038ad   Thumb Code    12  gyro.o(i.isOnFinalGyroCalibrationCycle)
    i.isUartTransmitBufferEmpty              0x080038bc   Section        0  serial_uart.o(i.isUartTransmitBufferEmpty)
    i.latchActiveFeatures                    0x080038d8   Section        0  feature.o(i.latchActiveFeatures)
    i.limitMotorPwm                          0x080038ec   Section        0  fc_tasks.o(i.limitMotorPwm)
    i.main                                   0x08003918   Section        0  main.o(i.main)
    i.micros                                 0x080039e8   Section        0  system.o(i.micros)
    i.microsISR                              0x08003a3c   Section        0  system.o(i.microsISR)
    i.millis                                 0x08003a88   Section        0  system.o(i.millis)
    i.modeSwitchBtnPollInit                  0x08003a94   Section        0  button.o(i.modeSwitchBtnPollInit)
    i.oledInit                               0x08003ab8   Section        0  oled.o(i.oledInit)
    i.oled_pow                               0x08003c44   Section        0  oled.o(i.oled_pow)
    i.openSerialPort                         0x08003c5c   Section        0  serial.o(i.openSerialPort)
    i.performAccelerationCalibration         0x08003cc8   Section        0  acceleration.o(i.performAccelerationCalibration)
    performAccelerationCalibration           0x08003cc9   Thumb Code   126  acceleration.o(i.performAccelerationCalibration)
    i.performGyroCalibration                 0x08003d50   Section        0  gyro.o(i.performGyroCalibration)
    performGyroCalibration                   0x08003d51   Thumb Code   200  gyro.o(i.performGyroCalibration)
    i.pwmEncoderICConfig                     0x08003e24   Section        0  rx_pwm.o(i.pwmEncoderICConfig)
    i.pwmEncoderInit                         0x08003e70   Section        0  rx_pwm.o(i.pwmEncoderInit)
    i.pwmWriteDcBrushedMotor                 0x08003edc   Section        0  pwm_output.o(i.pwmWriteDcBrushedMotor)
    i.queueAdd                               0x08003ef0   Section        0  scheduler.o(i.queueAdd)
    i.queueClear                             0x08003f50   Section        0  scheduler.o(i.queueClear)
    i.queueContains                          0x08003f6c   Section        0  scheduler.o(i.queueContains)
    i.queueFirst                             0x08003f98   Section        0  scheduler.o(i.queueFirst)
    i.queueNext                              0x08003fac   Section        0  scheduler.o(i.queueNext)
    i.queueRemove                            0x08003fc4   Section        0  scheduler.o(i.queueRemove)
    i.readEEPROM                             0x08004004   Section        0  config_eeprom.o(i.readEEPROM)
    i.resetEEPROM                            0x08004020   Section        0  config.o(i.resetEEPROM)
    i.rxSerial3TestInit                      0x08004038   Section        0  rxserial3test.o(i.rxSerial3TestInit)
    i.rxSerial3TestWrite                     0x08004064   Section        0  rxserial3test.o(i.rxSerial3TestWrite)
    i.scheduler                              0x08004074   Section        0  scheduler.o(i.scheduler)
    i.schedulerInit                          0x080041e4   Section        0  scheduler.o(i.schedulerInit)
    i.sensors                                0x08004204   Section        0  runtime_config.o(i.sensors)
    i.serialInit                             0x08004218   Section        0  serial.o(i.serialInit)
    i.serialUART                             0x0800424c   Section        0  serial_uart_stm32f4xx.o(i.serialUART)
    i.serialUART1                            0x0800435c   Section        0  serial_uart_stm32f4xx.o(i.serialUART1)
    i.serialUART3                            0x08004368   Section        0  serial_uart_stm32f4xx.o(i.serialUART3)
    i.serialUART6                            0x08004374   Section        0  serial_uart_stm32f4xx.o(i.serialUART6)
    i.serialWrite                            0x08004380   Section        0  serial.o(i.serialWrite)
    i.setAccelerationFilter                  0x08004388   Section        0  acceleration.o(i.setAccelerationFilter)
    i.setAccelerationTrims                   0x080043cc   Section        0  acceleration.o(i.setAccelerationTrims)
    i.setProfile                             0x080043d8   Section        0  config.o(i.setProfile)
    i.setTaskEnabled                         0x0800440c   Section        0  scheduler.o(i.setTaskEnabled)
    i.sinApprox                              0x08004440   Section        0  maths.o(i.sinApprox)
    i.spiInit                                0x080044f4   Section        0  bus_spi.o(i.spiInit)
    i.spiInitDevice                          0x08004510   Section        0  bus_spi.o(i.spiInitDevice)
    i.sqrtf                                  0x08004628   Section        0  sqrtf.o(i.sqrtf)
    i.systemBeep                             0x08004668   Section        0  sound_beeper.o(i.systemBeep)
    i.systemInit                             0x08004680   Section        0  main.o(i.systemInit)
    i.targetConfiguration                    0x080046d0   Section        0  config.o(i.targetConfiguration)
    i.taskIMUUpdateAttitude                  0x0800480c   Section        0  imu.o(i.taskIMUUpdateAttitude)
    i.taskMotorEncoder                       0x08004838   Section        0  fc_tasks.o(i.taskMotorEncoder)
    taskMotorEncoder                         0x08004839   Thumb Code    58  fc_tasks.o(i.taskMotorEncoder)
    i.taskOLEDDisplay                        0x08004890   Section        0  fc_tasks.o(i.taskOLEDDisplay)
    taskOLEDDisplay                          0x08004891   Thumb Code   504  fc_tasks.o(i.taskOLEDDisplay)
    i.taskSystem                             0x08004ae0   Section        0  scheduler.o(i.taskSystem)
    i.taskUltrasound1ReadData                0x08004b00   Section        0  fc_tasks.o(i.taskUltrasound1ReadData)
    taskUltrasound1ReadData                  0x08004b01   Thumb Code    12  fc_tasks.o(i.taskUltrasound1ReadData)
    i.taskUltrasound2ReadData                0x08004b10   Section        0  fc_tasks.o(i.taskUltrasound2ReadData)
    taskUltrasound2ReadData                  0x08004b11   Thumb Code    12  fc_tasks.o(i.taskUltrasound2ReadData)
    i.taskUltrasound3ReadData                0x08004b20   Section        0  fc_tasks.o(i.taskUltrasound3ReadData)
    taskUltrasound3ReadData                  0x08004b21   Thumb Code    12  fc_tasks.o(i.taskUltrasound3ReadData)
    i.taskUltrasound4ReadData                0x08004b30   Section        0  fc_tasks.o(i.taskUltrasound4ReadData)
    taskUltrasound4ReadData                  0x08004b31   Thumb Code    12  fc_tasks.o(i.taskUltrasound4ReadData)
    i.taskUltrasound5ReadData                0x08004b40   Section        0  fc_tasks.o(i.taskUltrasound5ReadData)
    taskUltrasound5ReadData                  0x08004b41   Thumb Code    12  fc_tasks.o(i.taskUltrasound5ReadData)
    i.taskUltrasound6ReadData                0x08004b50   Section        0  fc_tasks.o(i.taskUltrasound6ReadData)
    taskUltrasound6ReadData                  0x08004b51   Thumb Code    12  fc_tasks.o(i.taskUltrasound6ReadData)
    i.taskUpdateAccelerometer                0x08004b60   Section        0  fc_tasks.o(i.taskUpdateAccelerometer)
    taskUpdateAccelerometer                  0x08004b61   Thumb Code     6  fc_tasks.o(i.taskUpdateAccelerometer)
    i.taskUpdateGyro                         0x08004b6c   Section        0  fc_tasks.o(i.taskUpdateGyro)
    taskUpdateGyro                           0x08004b6d   Thumb Code     4  fc_tasks.o(i.taskUpdateGyro)
    i.timCCxHandler                          0x08004b70   Section        0  timer.o(i.timCCxHandler)
    timCCxHandler                            0x08004b71   Thumb Code   122  timer.o(i.timCCxHandler)
    i.timerChCCR                             0x08004bea   Section        0  timer.o(i.timerChCCR)
    i.timerGetByTag                          0x08004bf4   Section        0  timer.o(i.timerGetByTag)
    i.timerInit                              0x08004c30   Section        0  timer.o(i.timerInit)
    i.timerOCInit                            0x08004cb4   Section        0  timer.o(i.timerOCInit)
    i.timerOCPreloadConfig                   0x08004cdc   Section        0  timer.o(i.timerOCPreloadConfig)
    i.timerRCC                               0x08004d04   Section        0  timer.o(i.timerRCC)
    i.uartIrqHandler                         0x08004d28   Section        0  serial_uart_stm32f4xx.o(i.uartIrqHandler)
    i.uartOpen                               0x08004e04   Section        0  serial_uart.o(i.uartOpen)
    i.uartRead                               0x08004f78   Section        0  serial_uart.o(i.uartRead)
    i.uartReconfigure                        0x08004fa4   Section        0  serial_uart.o(i.uartReconfigure)
    uartReconfigure                          0x08004fa5   Thumb Code   140  serial_uart.o(i.uartReconfigure)
    i.uartSetBaudRate                        0x08005030   Section        0  serial_uart.o(i.uartSetBaudRate)
    i.uartSetMode                            0x08005036   Section        0  serial_uart.o(i.uartSetMode)
    i.uartStartTxDMA                         0x0800503c   Section        0  serial_uart.o(i.uartStartTxDMA)
    i.uartTotalRxBytesWaiting                0x08005086   Section        0  serial_uart.o(i.uartTotalRxBytesWaiting)
    i.uartTotalTxBytesFree                   0x0800509e   Section        0  serial_uart.o(i.uartTotalTxBytesFree)
    i.uartWrite                              0x080050c4   Section        0  serial_uart.o(i.uartWrite)
    i.ultrasound1Read                        0x080050f4   Section        0  ultrasound.o(i.ultrasound1Read)
    i.ultrasound1Update                      0x08005106   Section        0  ultrasound.o(i.ultrasound1Update)
    i.ultrasound2Read                        0x0800510a   Section        0  ultrasound.o(i.ultrasound2Read)
    i.ultrasound2Update                      0x0800511c   Section        0  ultrasound.o(i.ultrasound2Update)
    i.ultrasound3Read                        0x08005120   Section        0  ultrasound.o(i.ultrasound3Read)
    i.ultrasound3Update                      0x08005132   Section        0  ultrasound.o(i.ultrasound3Update)
    i.ultrasound4Read                        0x08005136   Section        0  ultrasound.o(i.ultrasound4Read)
    i.ultrasound4Update                      0x08005148   Section        0  ultrasound.o(i.ultrasound4Update)
    i.ultrasound5Read                        0x0800514c   Section        0  ultrasound.o(i.ultrasound5Read)
    i.ultrasound5Update                      0x0800515e   Section        0  ultrasound.o(i.ultrasound5Update)
    i.ultrasound6Read                        0x08005162   Section        0  ultrasound.o(i.ultrasound6Read)
    i.ultrasound6Update                      0x08005174   Section        0  ultrasound.o(i.ultrasound6Update)
    i.updateMotorPwm                         0x08005178   Section        0  fc_tasks.o(i.updateMotorPwm)
    i.validateAndFixConfig                   0x08005208   Section        0  config.o(i.validateAndFixConfig)
    i.validateAndFixGyroConfig               0x0800525c   Section        0  config.o(i.validateAndFixGyroConfig)
    x$fpl$d2f                                0x08005324   Section       98  d2f.o(x$fpl$d2f)
    $v0                                      0x08005324   Number         0  d2f.o(x$fpl$d2f)
    x$fpl$dadd                               0x08005388   Section      336  daddsub_clz.o(x$fpl$dadd)
    $v0                                      0x08005388   Number         0  daddsub_clz.o(x$fpl$dadd)
    _dadd1                                   0x08005399   Thumb Code     0  daddsub_clz.o(x$fpl$dadd)
    x$fpl$dcmpinf                            0x080054d8   Section       24  dcmpi.o(x$fpl$dcmpinf)
    $v0                                      0x080054d8   Number         0  dcmpi.o(x$fpl$dcmpinf)
    x$fpl$ddiv                               0x080054f0   Section      688  ddiv.o(x$fpl$ddiv)
    $v0                                      0x080054f0   Number         0  ddiv.o(x$fpl$ddiv)
    ddiv_entry                               0x080054f7   Thumb Code     0  ddiv.o(x$fpl$ddiv)
    x$fpl$dfix                               0x080057a0   Section       94  dfix.o(x$fpl$dfix)
    $v0                                      0x080057a0   Number         0  dfix.o(x$fpl$dfix)
    x$fpl$dflt                               0x080057fe   Section       46  dflt_clz.o(x$fpl$dflt)
    $v0                                      0x080057fe   Number         0  dflt_clz.o(x$fpl$dflt)
    x$fpl$dleqf                              0x0800582c   Section      120  dleqf.o(x$fpl$dleqf)
    $v0                                      0x0800582c   Number         0  dleqf.o(x$fpl$dleqf)
    x$fpl$dmul                               0x080058a4   Section      340  dmul.o(x$fpl$dmul)
    $v0                                      0x080058a4   Number         0  dmul.o(x$fpl$dmul)
    x$fpl$dnaninf                            0x080059f8   Section      156  dnaninf.o(x$fpl$dnaninf)
    $v0                                      0x080059f8   Number         0  dnaninf.o(x$fpl$dnaninf)
    x$fpl$dretinf                            0x08005a94   Section       12  dretinf.o(x$fpl$dretinf)
    $v0                                      0x08005a94   Number         0  dretinf.o(x$fpl$dretinf)
    x$fpl$drleqf                             0x08005aa0   Section      108  drleqf.o(x$fpl$drleqf)
    $v0                                      0x08005aa0   Number         0  drleqf.o(x$fpl$drleqf)
    x$fpl$drnd                               0x08005b0c   Section      180  drnd.o(x$fpl$drnd)
    $v0                                      0x08005b0c   Number         0  drnd.o(x$fpl$drnd)
    x$fpl$dsub                               0x08005bc0   Section      468  daddsub_clz.o(x$fpl$dsub)
    $v0                                      0x08005bc0   Number         0  daddsub_clz.o(x$fpl$dsub)
    _dsub1                                   0x08005bd1   Thumb Code     0  daddsub_clz.o(x$fpl$dsub)
    x$fpl$f2d                                0x08005d94   Section       86  f2d.o(x$fpl$f2d)
    $v0                                      0x08005d94   Number         0  f2d.o(x$fpl$f2d)
    x$fpl$ffixr                              0x08005dea   Section       14  ffix.o(x$fpl$ffixr)
    $v0                                      0x08005dea   Number         0  ffix.o(x$fpl$ffixr)
    x$fpl$fnaninf                            0x08005df8   Section      140  fnaninf.o(x$fpl$fnaninf)
    $v0                                      0x08005df8   Number         0  fnaninf.o(x$fpl$fnaninf)
    x$fpl$fpinit                             0x08005e84   Section       10  fpinit.o(x$fpl$fpinit)
    $v0                                      0x08005e84   Number         0  fpinit.o(x$fpl$fpinit)
    x$fpl$fretinf                            0x08005e8e   Section       10  fretinf.o(x$fpl$fretinf)
    $v0                                      0x08005e8e   Number         0  fretinf.o(x$fpl$fretinf)
    x$fpl$frnd                               0x08005e98   Section       96  frnd.o(x$fpl$frnd)
    $v0                                      0x08005e98   Number         0  frnd.o(x$fpl$frnd)
    .constdata                               0x08005ef8   Section      168  target.o(.constdata)
    x$fpl$usenofp                            0x08005ef8   Section        0  usenofp.o(x$fpl$usenofp)
    .constdata                               0x08005fa0   Section       26  bus_spi.o(.constdata)
    __FUNCTION__                             0x08005fa0   Data          14  bus_spi.o(.constdata)
    __FUNCTION__                             0x08005fae   Data          12  bus_spi.o(.constdata)
    .constdata                               0x08005fba   Section       22  io.o(.constdata)
    ioDefUsedOffset                          0x08005fba   Data           5  io.o(.constdata)
    ioDefUsedMask                            0x08005fc6   Data          10  io.o(.constdata)
    .constdata                               0x08005fd0   Section        3  serial.o(.constdata)
    .constdata                               0x08005fd4   Section       40  serial_uart.o(.constdata)
    .constdata                               0x08005ffc   Section      112  timer_stm32f4xx.o(.constdata)
    .constdata                               0x0800606c   Section     2660  oled.o(.constdata)
    .constdata                               0x08006ad0   Section       32  rredf.o(.constdata)
    twooverpi                                0x08006ad0   Data          32  rredf.o(.constdata)
    .conststring                             0x08006af0   Section      329  fc_tasks.o(.conststring)
    .data                                    0x20000000   Section       16  stm32f4xx_rcc.o(.data)
    APBAHBPrescTable                         0x20000000   Data          16  stm32f4xx_rcc.o(.data)
    .data                                    0x20000010   Section        1  main.o(.data)
    .data                                    0x20000014   Section        4  main.o(.data)
    .data                                    0x20000018   Section       20  system_stm32f4xx.o(.data)
    .data                                    0x2000002c   Section       12  system.o(.data)
    usTicks                                  0x2000002c   Data           4  system.o(.data)
    sysTickPending                           0x20000034   Data           4  system.o(.data)
    .data                                    0x20000038   Section       16  bus_spi.o(.data)
    spiHardwareMap                           0x20000038   Data          16  bus_spi.o(.data)
    .data                                    0x20000048   Section       12  button.o(.data)
    userBtnPin                               0x2000004c   Data           4  button.o(.data)
    modeSwitchBtnPin                         0x20000050   Data           4  button.o(.data)
    .data                                    0x20000054   Section      448  dma_stm32f4xx.o(.data)
    dmaDescriptors                           0x20000054   Data         448  dma_stm32f4xx.o(.data)
    .data                                    0x20000214   Section        7  exti.o(.data)
    extiGroupPriority                        0x20000214   Data           7  exti.o(.data)
    .data                                    0x2000021b   Section        1  led.o(.data)
    ledPolarity                              0x2000021b   Data           1  led.o(.data)
    .data                                    0x2000021c   Section       16  pwm_output.o(.data)
    motorDriverAIN1                          0x2000021c   Data           4  pwm_output.o(.data)
    motorDriverAIN2                          0x20000220   Data           4  pwm_output.o(.data)
    motorDriverBIN1                          0x20000224   Data           4  pwm_output.o(.data)
    motorDriverBIN2                          0x20000228   Data           4  pwm_output.o(.data)
    .data                                    0x2000022c   Section       12  rx_pwm.o(.data)
    pwmInputFilteringMode                    0x2000022c   Data           1  rx_pwm.o(.data)
    encoderInputFilteringMode                0x2000022d   Data           1  rx_pwm.o(.data)
    ultrasoundFilteringMode                  0x2000022e   Data           1  rx_pwm.o(.data)
    ultrasound1TriggerPin                    0x20000230   Data           4  rx_pwm.o(.data)
    ultrasound2TriggerPin                    0x20000234   Data           4  rx_pwm.o(.data)
    .data                                    0x20000238   Section        4  rxserial3test.o(.data)
    rxSerial3TestPort                        0x20000238   Data           4  rxserial3test.o(.data)
    .data                                    0x2000023c   Section        8  serial.o(.data)
    findSerialPortConfigState                0x2000023c   Data           1  serial.o(.data)
    serialConfig                             0x20000240   Data           4  serial.o(.data)
    .data                                    0x20000244   Section     1148  serial_uart_stm32f4xx.o(.data)
    uart1                                    0x20000244   Data        1148  serial_uart_stm32f4xx.o(.data)
    .data                                    0x200006c0   Section     1148  serial_uart_stm32f4xx.o(.data)
    uart3                                    0x200006c0   Data        1148  serial_uart_stm32f4xx.o(.data)
    .data                                    0x20000b3c   Section     1148  serial_uart_stm32f4xx.o(.data)
    uart6                                    0x20000b3c   Data        1148  serial_uart_stm32f4xx.o(.data)
    .data                                    0x20000fb8   Section       28  serial_uart_stm32f4xx.o(.data)
    uartHardwareMap                          0x20000fbc   Data          24  serial_uart_stm32f4xx.o(.data)
    .data                                    0x20000fd4   Section        8  sound_beeper.o(.data)
    beeperInverted                           0x20000fd4   Data           1  sound_beeper.o(.data)
    beeperIO                                 0x20000fd8   Data           4  sound_beeper.o(.data)
    .data                                    0x20000fdc   Section       16  oled.o(.data)
    g_OLED_RST                               0x20000fdc   Data           4  oled.o(.data)
    g_OLED_DC                                0x20000fe0   Data           4  oled.o(.data)
    g_OLED_SCL                               0x20000fe4   Data           4  oled.o(.data)
    g_OLED_SDA                               0x20000fe8   Data           4  oled.o(.data)
    .data                                    0x20000fec   Section        4  bluetoothserial6.o(.data)
    bluetoothSerial6Port                     0x20000fec   Data           4  bluetoothserial6.o(.data)
    .data                                    0x20000ff0   Section      144  ultrasound_hcsr04.o(.data)
    start_timing                             0x20001008   Data           4  ultrasound_hcsr04.o(.data)
    start_timing                             0x2000100c   Data           4  ultrasound_hcsr04.o(.data)
    start_timing                             0x20001010   Data           4  ultrasound_hcsr04.o(.data)
    start_timing                             0x20001014   Data           4  ultrasound_hcsr04.o(.data)
    start_timing                             0x20001018   Data           4  ultrasound_hcsr04.o(.data)
    start_timing                             0x2000101c   Data           4  ultrasound_hcsr04.o(.data)
    ultrasound1_triggerIOPin                 0x20001020   Data           4  ultrasound_hcsr04.o(.data)
    ultrasound1_echoIOPin                    0x20001024   Data           4  ultrasound_hcsr04.o(.data)
    ultrasound2_triggerIOPin                 0x20001028   Data           4  ultrasound_hcsr04.o(.data)
    ultrasound2_echoIOPin                    0x2000102c   Data           4  ultrasound_hcsr04.o(.data)
    ultrasound3_triggerIOPin                 0x20001030   Data           4  ultrasound_hcsr04.o(.data)
    ultrasound3_echoIOPin                    0x20001034   Data           4  ultrasound_hcsr04.o(.data)
    ultrasound4_triggerIOPin                 0x20001038   Data           4  ultrasound_hcsr04.o(.data)
    ultrasound4_echoIOPin                    0x2000103c   Data           4  ultrasound_hcsr04.o(.data)
    ultrasound5_triggerIOPin                 0x20001040   Data           4  ultrasound_hcsr04.o(.data)
    ultrasound5_echoIOPin                    0x20001044   Data           4  ultrasound_hcsr04.o(.data)
    ultrasound6_triggerIOPin                 0x20001048   Data           4  ultrasound_hcsr04.o(.data)
    ultrasound6_echoIOPin                    0x2000104c   Data           4  ultrasound_hcsr04.o(.data)
    hcsr04_ultrasound1_extiCallbackRec       0x20001050   Data           4  ultrasound_hcsr04.o(.data)
    hcsr04_ultrasound2_extiCallbackRec       0x20001054   Data           4  ultrasound_hcsr04.o(.data)
    hcsr04_ultrasound3_extiCallbackRec       0x20001058   Data           4  ultrasound_hcsr04.o(.data)
    hcsr04_ultrasound4_extiCallbackRec       0x2000105c   Data           4  ultrasound_hcsr04.o(.data)
    hcsr04_ultrasound5_extiCallbackRec       0x20001060   Data           4  ultrasound_hcsr04.o(.data)
    hcsr04_ultrasound6_extiCallbackRec       0x20001064   Data           4  ultrasound_hcsr04.o(.data)
    ultrasound1_lastMeasurementAt            0x20001068   Data           4  ultrasound_hcsr04.o(.data)
    ultrasound2_lastMeasurementAt            0x2000106c   Data           4  ultrasound_hcsr04.o(.data)
    ultrasound3_lastMeasurementAt            0x20001070   Data           4  ultrasound_hcsr04.o(.data)
    ultrasound4_lastMeasurementAt            0x20001074   Data           4  ultrasound_hcsr04.o(.data)
    ultrasound5_lastMeasurementAt            0x20001078   Data           4  ultrasound_hcsr04.o(.data)
    ultrasound6_lastMeasurementAt            0x2000107c   Data           4  ultrasound_hcsr04.o(.data)
    .data                                    0x20001080   Section       12  config.o(.data)
    currentControlRateProfileIndex           0x20001080   Data           1  config.o(.data)
    .data                                    0x2000108c   Section       72  fc_tasks.o(.data)
    switchFromOADisplayFlag                  0x2000108f   Data           1  fc_tasks.o(.data)
    condition                                0x20001090   Data           2  fc_tasks.o(.data)
    temp0                                    0x20001092   Data           2  fc_tasks.o(.data)
    temp1                                    0x20001094   Data           2  fc_tasks.o(.data)
    temp2                                    0x20001096   Data           2  fc_tasks.o(.data)
    condition                                0x20001098   Data           2  fc_tasks.o(.data)
    temp                                     0x2000109a   Data           2  fc_tasks.o(.data)
    ultrasound1DistanceData                  0x200010a0   Data           4  fc_tasks.o(.data)
    ultrasound2DistanceData                  0x200010a4   Data           4  fc_tasks.o(.data)
    ultrasound3DistanceData                  0x200010a8   Data           4  fc_tasks.o(.data)
    ultrasound4DistanceData                  0x200010ac   Data           4  fc_tasks.o(.data)
    ultrasound5DistanceData                  0x200010b0   Data           4  fc_tasks.o(.data)
    ultrasound6DistanceData                  0x200010b4   Data           4  fc_tasks.o(.data)
    error                                    0x200010b8   Data           4  fc_tasks.o(.data)
    updatedPWM                               0x200010bc   Data           4  fc_tasks.o(.data)
    prev_error                               0x200010c0   Data           4  fc_tasks.o(.data)
    .data                                    0x200010d4   Section     1092  fc_tasks.o(.data)
    .data                                    0x20001518   Section        1  runtime_config.o(.data)
    .data                                    0x2000151c   Section        8  runtime_config.o(.data)
    enabledSensors                           0x20001520   Data           4  runtime_config.o(.data)
    .data                                    0x20001524   Section        1  runtime_config.o(.data)
    .data                                    0x20001528   Section       62  imu.o(.data)
    q0                                       0x2000152c   Data           4  imu.o(.data)
    q1                                       0x20001530   Data           4  imu.o(.data)
    q2                                       0x20001534   Data           4  imu.o(.data)
    q3                                       0x20001538   Data           4  imu.o(.data)
    integralFBx                              0x20001540   Data           4  imu.o(.data)
    integralFBy                              0x20001544   Data           4  imu.o(.data)
    integralFBz                              0x20001548   Data           4  imu.o(.data)
    previousIMUUpdateTime                    0x2000154c   Data           4  imu.o(.data)
    pidProfile                               0x2000155c   Data           4  imu.o(.data)
    .data                                    0x20001568   Section        4  feature.o(.data)
    activeFeaturesLatch                      0x20001568   Data           4  feature.o(.data)
    .data                                    0x2000156c   Section        8  acceleration.o(.data)
    accLpfCutHz                              0x2000156c   Data           2  acceleration.o(.data)
    calibratingA                             0x2000156e   Data           2  acceleration.o(.data)
    accelerationTrims                        0x20001570   Data           4  acceleration.o(.data)
    .data                                    0x20001574   Section       24  gyro.o(.data)
    calibratingG                             0x20001574   Data           2  gyro.o(.data)
    gyroConfig                               0x2000157c   Data           4  gyro.o(.data)
    softLpfFilterApplyFn                     0x20001580   Data           4  gyro.o(.data)
    notchFilter1ApplyFn                      0x20001584   Data           4  gyro.o(.data)
    notchFilter2ApplyFn                      0x20001588   Data           4  gyro.o(.data)
    .data                                    0x2000158c   Section        1  boardalignment.o(.data)
    isStandardBoardAlignment                 0x2000158c   Data           1  boardalignment.o(.data)
    .data                                    0x20001590   Section       36  scheduler.o(.data)
    calculateTaskStatistics                  0x20001590   Data           1  scheduler.o(.data)
    currentTask                              0x20001594   Data           4  scheduler.o(.data)
    taskQueuePos                             0x20001598   Data           4  scheduler.o(.data)
    taskQueueSize                            0x2000159c   Data           4  scheduler.o(.data)
    totalWaitingTasks                        0x200015a0   Data           4  scheduler.o(.data)
    totalWaitingTasksSamples                 0x200015a4   Data           4  scheduler.o(.data)
    .bss                                     0x200015b4   Section       16  system.o(.bss)
    .bss                                     0x200015c4   Section       64  exti.o(.bss)
    .bss                                     0x20001604   Section      640  io.o(.bss)
    .bss                                     0x20001884   Section       16  led.o(.bss)
    leds                                     0x20001884   Data          16  led.o(.bss)
    .bss                                     0x20001894   Section       40  pwm_output.o(.bss)
    dcBrushedMotors                          0x20001894   Data          40  pwm_output.o(.bss)
    .bss                                     0x200018bc   Section       36  serial.o(.bss)
    serialPortUsageList                      0x200018bc   Data          36  serial.o(.bss)
    .bss                                     0x200018e0   Section      465  timer.o(.bss)
    .bss                                     0x20001ab1   Section     1024  oled.o(.bss)
    .bss                                     0x20001eb4   Section      948  config.o(.bss)
    .bss                                     0x20002268   Section       48  imu.o(.bss)
    imuRuntimeConfig                         0x20002268   Data          12  imu.o(.bss)
    rMat                                     0x20002274   Data          36  imu.o(.bss)
    .bss                                     0x20002298   Section      160  acceleration.o(.bss)
    a                                        0x20002298   Data          12  acceleration.o(.bss)
    accFilter                                0x200022e4   Data          84  acceleration.o(.bss)
    .bss                                     0x20002338   Section      520  gyro.o(.bss)
    gyroZero                                 0x20002338   Data          12  gyro.o(.bss)
    gyroFilterLPF                            0x20002344   Data          84  gyro.o(.bss)
    gyroFilterPt1                            0x20002398   Data          48  gyro.o(.bss)
    gyroFilterNotch_1                        0x200023c8   Data          84  gyro.o(.bss)
    gyroFilterNotch_2                        0x2000241c   Data          84  gyro.o(.bss)
    g                                        0x20002470   Data          12  gyro.o(.bss)
    var                                      0x2000247c   Data          60  gyro.o(.bss)
    gyroADC                                  0x20002510   Data          12  gyro.o(.bss)
    softLpfFilter                            0x2000251c   Data          12  gyro.o(.bss)
    notchFilter1                             0x20002528   Data          12  gyro.o(.bss)
    notchFilter2                             0x20002534   Data          12  gyro.o(.bss)
    .bss                                     0x20002540   Section       36  boardalignment.o(.bss)
    boardRotation                            0x20002540   Data          36  boardalignment.o(.bss)
    .bss                                     0x20002564   Section       28  compass.o(.bss)
    .bss                                     0x20002580   Section       88  scheduler.o(.bss)
    .bss                                     0x200025d8   Section       96  libspace.o(.bss)
    HEAP                                     0x20002638   Section      512  startup_stm32f407xx.o(HEAP)
    Heap_Mem                                 0x20002638   Data         512  startup_stm32f407xx.o(HEAP)
    STACK                                    0x20002838   Section     1024  startup_stm32f407xx.o(STACK)
    Stack_Mem                                0x20002838   Data        1024  startup_stm32f407xx.o(STACK)
    __initial_sp                             0x20002c38   Data           0  startup_stm32f407xx.o(STACK)

    Global Symbols

    Symbol Name                              Value     Ov Type        Size  Object(Section)

    BuildAttributes$$THM_ISAv4$E$P$D$K$B$S$7EM$VFPi3$EXTD16$VFPS$VFMA$PE$A:L22UL41UL21$X:L11$S22US41US21$IEEE1$IW$USESV6$~STKCKD$USESV7$~SHL$OTIME$ROPI$IEEEX$EBA8$UX$STANDARDLIB$REQ8$PRES8$EABIv2 0x00000000   Number         0  anon$$obj.o ABSOLUTE
    __ARM_use_no_argv                        0x00000000   Number         0  main.o ABSOLUTE
    __ARM_exceptions_init                     - Undefined Weak Reference
    __alloca_initialize                       - Undefined Weak Reference
    __arm_preinit_                            - Undefined Weak Reference
    __cpp_initialize__aeabi_                  - Undefined Weak Reference
    __cxa_finalize                            - Undefined Weak Reference
    __sigvec_lookup                           - Undefined Weak Reference
    _atexit_init                              - Undefined Weak Reference
    _call_atexit_fns                          - Undefined Weak Reference
    _clock_init                               - Undefined Weak Reference
    _fp_trap_init                             - Undefined Weak Reference
    _fp_trap_shutdown                         - Undefined Weak Reference
    _get_lc_collate                           - Undefined Weak Reference
    _get_lc_monetary                          - Undefined Weak Reference
    _get_lc_numeric                           - Undefined Weak Reference
    _get_lc_time                              - Undefined Weak Reference
    _getenv_init                              - Undefined Weak Reference
    _handle_redirection                       - Undefined Weak Reference
    _init_alloc                               - Undefined Weak Reference
    _init_user_alloc                          - Undefined Weak Reference
    _initio                                   - Undefined Weak Reference
    _mutex_acquire                            - Undefined Weak Reference
    _mutex_release                            - Undefined Weak Reference
    _printf_mbtowc                            - Undefined Weak Reference
    _printf_post_padding                      - Undefined Weak Reference
    _printf_pre_padding                       - Undefined Weak Reference
    _printf_truncate_signed                   - Undefined Weak Reference
    _printf_truncate_unsigned                 - Undefined Weak Reference
    _rand_init                                - Undefined Weak Reference
    _signal_finish                            - Undefined Weak Reference
    _signal_init                              - Undefined Weak Reference
    _terminate_alloc                          - Undefined Weak Reference
    _terminate_user_alloc                     - Undefined Weak Reference
    _terminateio                              - Undefined Weak Reference
    __Vectors_Size                           0x00000188   Number         0  startup_stm32f407xx.o ABSOLUTE
    __Vectors                                0x08000000   Data           4  startup_stm32f407xx.o(RESET)
    __Vectors_End                            0x08000188   Data           0  startup_stm32f407xx.o(RESET)
    __main                                   0x08000189   Thumb Code     8  __main.o(!!!main)
    __scatterload                            0x08000191   Thumb Code     0  __scatter.o(!!!scatter)
    __scatterload_rt2                        0x08000191   Thumb Code    44  __scatter.o(!!!scatter)
    __scatterload_rt2_thumb_only             0x08000191   Thumb Code     0  __scatter.o(!!!scatter)
    __scatterload_null                       0x0800019f   Thumb Code     0  __scatter.o(!!!scatter)
    __decompress                             0x080001c5   Thumb Code    90  __dczerorl2.o(!!dczerorl2)
    __decompress1                            0x080001c5   Thumb Code     0  __dczerorl2.o(!!dczerorl2)
    __scatterload_zeroinit                   0x08000221   Thumb Code    28  __scatter_zi.o(!!handler_zi)
    _printf_d                                0x0800023d   Thumb Code     0  _printf_d.o(.ARM.Collect$$_printf_percent$$00000009)
    _printf_percent                          0x0800023d   Thumb Code     0  _printf_percent.o(.ARM.Collect$$_printf_percent$$00000000)
    _printf_s                                0x08000243   Thumb Code     0  _printf_s.o(.ARM.Collect$$_printf_percent$$00000014)
    _printf_percent_end                      0x08000249   Thumb Code     0  _printf_percent_end.o(.ARM.Collect$$_printf_percent$$00000017)
    __rt_lib_init                            0x0800024d   Thumb Code     0  libinit.o(.ARM.Collect$$libinit$$00000000)
    __rt_lib_init_fp_1                       0x0800024f   Thumb Code     0  libinit2.o(.ARM.Collect$$libinit$$00000001)
    __rt_lib_init_alloca_1                   0x08000253   Thumb Code     0  libinit2.o(.ARM.Collect$$libinit$$0000002E)
    __rt_lib_init_argv_1                     0x08000253   Thumb Code     0  libinit2.o(.ARM.Collect$$libinit$$0000002C)
    __rt_lib_init_atexit_1                   0x08000253   Thumb Code     0  libinit2.o(.ARM.Collect$$libinit$$0000001B)
    __rt_lib_init_clock_1                    0x08000253   Thumb Code     0  libinit2.o(.ARM.Collect$$libinit$$00000021)
    __rt_lib_init_cpp_1                      0x08000253   Thumb Code     0  libinit2.o(.ARM.Collect$$libinit$$00000032)
    __rt_lib_init_exceptions_1               0x08000253   Thumb Code     0  libinit2.o(.ARM.Collect$$libinit$$00000030)
    __rt_lib_init_fp_trap_1                  0x08000253   Thumb Code     0  libinit2.o(.ARM.Collect$$libinit$$0000001F)
    __rt_lib_init_getenv_1                   0x08000253   Thumb Code     0  libinit2.o(.ARM.Collect$$libinit$$00000023)
    __rt_lib_init_heap_1                     0x08000253   Thumb Code     0  libinit2.o(.ARM.Collect$$libinit$$0000000A)
    __rt_lib_init_lc_collate_1               0x08000253   Thumb Code     0  libinit2.o(.ARM.Collect$$libinit$$00000011)
    __rt_lib_init_lc_ctype_1                 0x08000253   Thumb Code     0  libinit2.o(.ARM.Collect$$libinit$$00000013)
    __rt_lib_init_lc_monetary_1              0x08000253   Thumb Code     0  libinit2.o(.ARM.Collect$$libinit$$00000015)
    __rt_lib_init_lc_numeric_1               0x08000253   Thumb Code     0  libinit2.o(.ARM.Collect$$libinit$$00000017)
    __rt_lib_init_lc_time_1                  0x08000253   Thumb Code     0  libinit2.o(.ARM.Collect$$libinit$$00000019)
    __rt_lib_init_preinit_1                  0x08000253   Thumb Code     0  libinit2.o(.ARM.Collect$$libinit$$00000004)
    __rt_lib_init_rand_1                     0x08000253   Thumb Code     0  libinit2.o(.ARM.Collect$$libinit$$0000000E)
    __rt_lib_init_return                     0x08000253   Thumb Code     0  libinit2.o(.ARM.Collect$$libinit$$00000033)
    __rt_lib_init_signal_1                   0x08000253   Thumb Code     0  libinit2.o(.ARM.Collect$$libinit$$0000001D)
    __rt_lib_init_stdio_1                    0x08000253   Thumb Code     0  libinit2.o(.ARM.Collect$$libinit$$00000025)
    __rt_lib_init_user_alloc_1               0x08000253   Thumb Code     0  libinit2.o(.ARM.Collect$$libinit$$0000000C)
    __rt_lib_shutdown                        0x08000255   Thumb Code     0  libshutdown.o(.ARM.Collect$$libshutdown$$00000000)
    __rt_lib_shutdown_cpp_1                  0x08000257   Thumb Code     0  libshutdown2.o(.ARM.Collect$$libshutdown$$00000002)
    __rt_lib_shutdown_fp_trap_1              0x08000257   Thumb Code     0  libshutdown2.o(.ARM.Collect$$libshutdown$$00000007)
    __rt_lib_shutdown_heap_1                 0x08000257   Thumb Code     0  libshutdown2.o(.ARM.Collect$$libshutdown$$0000000F)
    __rt_lib_shutdown_return                 0x08000257   Thumb Code     0  libshutdown2.o(.ARM.Collect$$libshutdown$$00000010)
    __rt_lib_shutdown_signal_1               0x08000257   Thumb Code     0  libshutdown2.o(.ARM.Collect$$libshutdown$$0000000A)
    __rt_lib_shutdown_stdio_1                0x08000257   Thumb Code     0  libshutdown2.o(.ARM.Collect$$libshutdown$$00000004)
    __rt_lib_shutdown_user_alloc_1           0x08000257   Thumb Code     0  libshutdown2.o(.ARM.Collect$$libshutdown$$0000000C)
    __rt_entry                               0x08000259   Thumb Code     0  __rtentry.o(.ARM.Collect$$rtentry$$00000000)
    __rt_entry_presh_1                       0x08000259   Thumb Code     0  __rtentry2.o(.ARM.Collect$$rtentry$$00000002)
    __rt_entry_sh                            0x08000259   Thumb Code     0  __rtentry4.o(.ARM.Collect$$rtentry$$00000004)
    __rt_entry_li                            0x0800025f   Thumb Code     0  __rtentry2.o(.ARM.Collect$$rtentry$$0000000A)
    __rt_entry_postsh_1                      0x0800025f   Thumb Code     0  __rtentry2.o(.ARM.Collect$$rtentry$$00000009)
    __rt_entry_main                          0x08000263   Thumb Code     0  __rtentry2.o(.ARM.Collect$$rtentry$$0000000D)
    __rt_entry_postli_1                      0x08000263   Thumb Code     0  __rtentry2.o(.ARM.Collect$$rtentry$$0000000C)
    __rt_exit                                0x0800026b   Thumb Code     0  rtexit.o(.ARM.Collect$$rtexit$$00000000)
    __rt_exit_ls                             0x0800026d   Thumb Code     0  rtexit2.o(.ARM.Collect$$rtexit$$00000003)
    __rt_exit_prels_1                        0x0800026d   Thumb Code     0  rtexit2.o(.ARM.Collect$$rtexit$$00000002)
    __rt_exit_exit                           0x08000271   Thumb Code     0  rtexit2.o(.ARM.Collect$$rtexit$$00000004)
    Reset_Handler                            0x08000279   Thumb Code     8  startup_stm32f407xx.o(.text)
    NMI_Handler                              0x08000281   Thumb Code     2  startup_stm32f407xx.o(.text)
    HardFault_Handler                        0x08000283   Thumb Code     2  startup_stm32f407xx.o(.text)
    MemManage_Handler                        0x08000285   Thumb Code     2  startup_stm32f407xx.o(.text)
    BusFault_Handler                         0x08000287   Thumb Code     2  startup_stm32f407xx.o(.text)
    UsageFault_Handler                       0x08000289   Thumb Code     2  startup_stm32f407xx.o(.text)
    SVC_Handler                              0x0800028b   Thumb Code     2  startup_stm32f407xx.o(.text)
    DebugMon_Handler                         0x0800028d   Thumb Code     2  startup_stm32f407xx.o(.text)
    PendSV_Handler                           0x0800028f   Thumb Code     2  startup_stm32f407xx.o(.text)
    ADC_IRQHandler                           0x08000293   Thumb Code     0  startup_stm32f407xx.o(.text)
    CAN1_RX0_IRQHandler                      0x08000293   Thumb Code     0  startup_stm32f407xx.o(.text)
    CAN1_RX1_IRQHandler                      0x08000293   Thumb Code     0  startup_stm32f407xx.o(.text)
    CAN1_SCE_IRQHandler                      0x08000293   Thumb Code     0  startup_stm32f407xx.o(.text)
    CAN1_TX_IRQHandler                       0x08000293   Thumb Code     0  startup_stm32f407xx.o(.text)
    CAN2_RX0_IRQHandler                      0x08000293   Thumb Code     0  startup_stm32f407xx.o(.text)
    CAN2_RX1_IRQHandler                      0x08000293   Thumb Code     0  startup_stm32f407xx.o(.text)
    CAN2_SCE_IRQHandler                      0x08000293   Thumb Code     0  startup_stm32f407xx.o(.text)
    CAN2_TX_IRQHandler                       0x08000293   Thumb Code     0  startup_stm32f407xx.o(.text)
    DCMI_IRQHandler                          0x08000293   Thumb Code     0  startup_stm32f407xx.o(.text)
    ETH_IRQHandler                           0x08000293   Thumb Code     0  startup_stm32f407xx.o(.text)
    ETH_WKUP_IRQHandler                      0x08000293   Thumb Code     0  startup_stm32f407xx.o(.text)
    FLASH_IRQHandler                         0x08000293   Thumb Code     0  startup_stm32f407xx.o(.text)
    FMC_IRQHandler                           0x08000293   Thumb Code     0  startup_stm32f407xx.o(.text)
    FPU_IRQHandler                           0x08000293   Thumb Code     0  startup_stm32f407xx.o(.text)
    HASH_RNG_IRQHandler                      0x08000293   Thumb Code     0  startup_stm32f407xx.o(.text)
    I2C1_ER_IRQHandler                       0x08000293   Thumb Code     0  startup_stm32f407xx.o(.text)
    I2C1_EV_IRQHandler                       0x08000293   Thumb Code     0  startup_stm32f407xx.o(.text)
    I2C2_ER_IRQHandler                       0x08000293   Thumb Code     0  startup_stm32f407xx.o(.text)
    I2C2_EV_IRQHandler                       0x08000293   Thumb Code     0  startup_stm32f407xx.o(.text)
    I2C3_ER_IRQHandler                       0x08000293   Thumb Code     0  startup_stm32f407xx.o(.text)
    I2C3_EV_IRQHandler                       0x08000293   Thumb Code     0  startup_stm32f407xx.o(.text)
    OTG_FS_IRQHandler                        0x08000293   Thumb Code     0  startup_stm32f407xx.o(.text)
    OTG_FS_WKUP_IRQHandler                   0x08000293   Thumb Code     0  startup_stm32f407xx.o(.text)
    OTG_HS_EP1_IN_IRQHandler                 0x08000293   Thumb Code     0  startup_stm32f407xx.o(.text)
    OTG_HS_EP1_OUT_IRQHandler                0x08000293   Thumb Code     0  startup_stm32f407xx.o(.text)
    OTG_HS_IRQHandler                        0x08000293   Thumb Code     0  startup_stm32f407xx.o(.text)
    OTG_HS_WKUP_IRQHandler                   0x08000293   Thumb Code     0  startup_stm32f407xx.o(.text)
    PVD_IRQHandler                           0x08000293   Thumb Code     0  startup_stm32f407xx.o(.text)
    RCC_IRQHandler                           0x08000293   Thumb Code     0  startup_stm32f407xx.o(.text)
    RTC_Alarm_IRQHandler                     0x08000293   Thumb Code     0  startup_stm32f407xx.o(.text)
    RTC_WKUP_IRQHandler                      0x08000293   Thumb Code     0  startup_stm32f407xx.o(.text)
    SDIO_IRQHandler                          0x08000293   Thumb Code     0  startup_stm32f407xx.o(.text)
    SPI1_IRQHandler                          0x08000293   Thumb Code     0  startup_stm32f407xx.o(.text)
    SPI2_IRQHandler                          0x08000293   Thumb Code     0  startup_stm32f407xx.o(.text)
    SPI3_IRQHandler                          0x08000293   Thumb Code     0  startup_stm32f407xx.o(.text)
    TAMP_STAMP_IRQHandler                    0x08000293   Thumb Code     0  startup_stm32f407xx.o(.text)
    TIM1_BRK_TIM9_IRQHandler                 0x08000293   Thumb Code     0  startup_stm32f407xx.o(.text)
    TIM1_TRG_COM_TIM11_IRQHandler            0x08000293   Thumb Code     0  startup_stm32f407xx.o(.text)
    TIM1_UP_TIM10_IRQHandler                 0x08000293   Thumb Code     0  startup_stm32f407xx.o(.text)
    TIM6_DAC_IRQHandler                      0x08000293   Thumb Code     0  startup_stm32f407xx.o(.text)
    TIM7_IRQHandler                          0x08000293   Thumb Code     0  startup_stm32f407xx.o(.text)
    TIM8_BRK_TIM12_IRQHandler                0x08000293   Thumb Code     0  startup_stm32f407xx.o(.text)
    TIM8_CC_IRQHandler                       0x08000293   Thumb Code     0  startup_stm32f407xx.o(.text)
    TIM8_TRG_COM_TIM14_IRQHandler            0x08000293   Thumb Code     0  startup_stm32f407xx.o(.text)
    TIM8_UP_TIM13_IRQHandler                 0x08000293   Thumb Code     0  startup_stm32f407xx.o(.text)
    UART4_IRQHandler                         0x08000293   Thumb Code     0  startup_stm32f407xx.o(.text)
    UART5_IRQHandler                         0x08000293   Thumb Code     0  startup_stm32f407xx.o(.text)
    USART2_IRQHandler                        0x08000293   Thumb Code     0  startup_stm32f407xx.o(.text)
    WWDG_IRQHandler                          0x08000293   Thumb Code     0  startup_stm32f407xx.o(.text)
    __user_initial_stackheap                 0x08000295   Thumb Code     0  startup_stm32f407xx.o(.text)
    __2printf                                0x080002b9   Thumb Code    20  noretval__2printf.o(.text)
    __printf                                 0x080002d1   Thumb Code   104  __printf.o(.text)
    _printf_str                              0x08000339   Thumb Code    82  _printf_str.o(.text)
    _printf_int_dec                          0x0800038d   Thumb Code   104  _printf_dec.o(.text)
    __aeabi_memcpy4                          0x08000405   Thumb Code     0  rt_memcpy_w.o(.text)
    __aeabi_memcpy8                          0x08000405   Thumb Code     0  rt_memcpy_w.o(.text)
    __rt_memcpy_w                            0x08000405   Thumb Code   100  rt_memcpy_w.o(.text)
    _memcpy_lastbytes_aligned                0x0800044d   Thumb Code     0  rt_memcpy_w.o(.text)
    __aeabi_memmove4                         0x08000469   Thumb Code     0  rt_memmove_w.o(.text)
    __aeabi_memmove8                         0x08000469   Thumb Code     0  rt_memmove_w.o(.text)
    __rt_memmove_w                           0x08000469   Thumb Code   122  rt_memmove_w.o(.text)
    __memmove_aligned                        0x0800048f   Thumb Code     0  rt_memmove_w.o(.text)
    __memmove_lastfew_aligned                0x080004c7   Thumb Code     0  rt_memmove_w.o(.text)
    __aeabi_memset                           0x080004e3   Thumb Code    16  aeabi_memset.o(.text)
    __aeabi_memclr                           0x080004f3   Thumb Code     0  rt_memclr.o(.text)
    __rt_memclr                              0x080004f3   Thumb Code    68  rt_memclr.o(.text)
    _memset                                  0x080004f7   Thumb Code     0  rt_memclr.o(.text)
    __aeabi_memclr4                          0x08000537   Thumb Code     0  rt_memclr_w.o(.text)
    __aeabi_memclr8                          0x08000537   Thumb Code     0  rt_memclr_w.o(.text)
    __rt_memclr_w                            0x08000537   Thumb Code    78  rt_memclr_w.o(.text)
    _memset_w                                0x0800053b   Thumb Code     0  rt_memclr_w.o(.text)
    strncpy                                  0x08000585   Thumb Code    86  strncpy.o(.text)
    __use_two_region_memory                  0x080005db   Thumb Code     2  heapauxi.o(.text)
    __rt_heap_escrow$2region                 0x080005dd   Thumb Code     2  heapauxi.o(.text)
    __rt_heap_expand$2region                 0x080005df   Thumb Code     2  heapauxi.o(.text)
    __read_errno                             0x080005e1   Thumb Code    10  _rserrno.o(.text)
    __set_errno                              0x080005eb   Thumb Code    12  _rserrno.o(.text)
    _printf_int_common                       0x080005f7   Thumb Code   178  _printf_intcommon.o(.text)
    _printf_cs_common                        0x080006a9   Thumb Code    20  _printf_char.o(.text)
    _printf_char                             0x080006bd   Thumb Code    16  _printf_char.o(.text)
    _printf_string                           0x080006cd   Thumb Code     8  _printf_char.o(.text)
    _printf_char_file                        0x080006d5   Thumb Code    32  _printf_char_file.o(.text)
    __aeabi_errno_addr                       0x080006f9   Thumb Code     8  rt_errno_addr_intlibspace.o(.text)
    __errno$intlibspace                      0x080006f9   Thumb Code     0  rt_errno_addr_intlibspace.o(.text)
    __rt_errno_addr$intlibspace              0x080006f9   Thumb Code     0  rt_errno_addr_intlibspace.o(.text)
    _printf_char_common                      0x0800070b   Thumb Code    32  _printf_char_common.o(.text)
    ferror                                   0x08000731   Thumb Code     8  ferror.o(.text)
    __user_libspace                          0x08000739   Thumb Code     8  libspace.o(.text)
    __user_perproc_libspace                  0x08000739   Thumb Code     0  libspace.o(.text)
    __user_perthread_libspace                0x08000739   Thumb Code     0  libspace.o(.text)
    __user_setup_stackheap                   0x08000741   Thumb Code    74  sys_stackheap_outer.o(.text)
    exit                                     0x0800078b   Thumb Code    18  exit.o(.text)
    _sys_exit                                0x0800079d   Thumb Code     8  sys_exit.o(.text)
    __I$use$semihosting                      0x080007a9   Thumb Code     0  use_no_semi.o(.text)
    __use_no_semihosting_swi                 0x080007a9   Thumb Code     2  use_no_semi.o(.text)
    __semihosting_library_function           0x080007ab   Thumb Code     0  indicate_semi.o(.text)
    DMA1_Stream0_IRQHandler                  0x080007ad   Thumb Code    12  dma_stm32f4xx.o(i.DMA1_Stream0_IRQHandler)
    DMA1_Stream1_IRQHandler                  0x080007bd   Thumb Code    14  dma_stm32f4xx.o(i.DMA1_Stream1_IRQHandler)
    DMA1_Stream2_IRQHandler                  0x080007d1   Thumb Code    14  dma_stm32f4xx.o(i.DMA1_Stream2_IRQHandler)
    DMA1_Stream3_IRQHandler                  0x080007e5   Thumb Code    14  dma_stm32f4xx.o(i.DMA1_Stream3_IRQHandler)
    DMA1_Stream4_IRQHandler                  0x080007f9   Thumb Code    14  dma_stm32f4xx.o(i.DMA1_Stream4_IRQHandler)
    DMA1_Stream5_IRQHandler                  0x0800080d   Thumb Code    16  dma_stm32f4xx.o(i.DMA1_Stream5_IRQHandler)
    DMA1_Stream6_IRQHandler                  0x08000821   Thumb Code    16  dma_stm32f4xx.o(i.DMA1_Stream6_IRQHandler)
    DMA1_Stream7_IRQHandler                  0x08000835   Thumb Code    16  dma_stm32f4xx.o(i.DMA1_Stream7_IRQHandler)
    DMA2_Stream0_IRQHandler                  0x08000849   Thumb Code    16  dma_stm32f4xx.o(i.DMA2_Stream0_IRQHandler)
    DMA2_Stream1_IRQHandler                  0x0800085d   Thumb Code    16  dma_stm32f4xx.o(i.DMA2_Stream1_IRQHandler)
    DMA2_Stream2_IRQHandler                  0x08000871   Thumb Code    18  dma_stm32f4xx.o(i.DMA2_Stream2_IRQHandler)
    DMA2_Stream3_IRQHandler                  0x08000889   Thumb Code    18  dma_stm32f4xx.o(i.DMA2_Stream3_IRQHandler)
    DMA2_Stream4_IRQHandler                  0x080008a1   Thumb Code    18  dma_stm32f4xx.o(i.DMA2_Stream4_IRQHandler)
    DMA2_Stream5_IRQHandler                  0x080008b9   Thumb Code    18  dma_stm32f4xx.o(i.DMA2_Stream5_IRQHandler)
    DMA2_Stream6_IRQHandler                  0x080008d1   Thumb Code    18  dma_stm32f4xx.o(i.DMA2_Stream6_IRQHandler)
    DMA2_Stream7_IRQHandler                  0x080008e9   Thumb Code    18  dma_stm32f4xx.o(i.DMA2_Stream7_IRQHandler)
    DMA_Cmd                                  0x08000901   Thumb Code    20  stm32f4xx_dma.o(i.DMA_Cmd)
    DMA_DeInit                               0x08000915   Thumb Code   272  stm32f4xx_dma.o(i.DMA_DeInit)
    DMA_GetCurrDataCounter                   0x08000a39   Thumb Code     6  stm32f4xx_dma.o(i.DMA_GetCurrDataCounter)
    DMA_ITConfig                             0x08000a3f   Thumb Code    44  stm32f4xx_dma.o(i.DMA_ITConfig)
    DMA_Init                                 0x08000a6d   Thumb Code    80  stm32f4xx_dma.o(i.DMA_Init)
    DMA_MemoryTargetConfig                   0x08000ac1   Thumb Code    10  stm32f4xx_dma.o(i.DMA_MemoryTargetConfig)
    DMA_SetCurrDataCounter                   0x08000acb   Thumb Code     4  stm32f4xx_dma.o(i.DMA_SetCurrDataCounter)
    DMA_StructInit                           0x08000acf   Thumb Code    34  stm32f4xx_dma.o(i.DMA_StructInit)
    EXTI0_IRQHandler                         0x08000af1   Thumb Code     4  exti.o(i.EXTI0_IRQHandler)
    EXTI15_10_IRQHandler                     0x08000af5   Thumb Code     4  exti.o(i.EXTI15_10_IRQHandler)
    EXTI1_IRQHandler                         0x08000af9   Thumb Code     4  exti.o(i.EXTI1_IRQHandler)
    EXTI2_IRQHandler                         0x08000afd   Thumb Code     4  exti.o(i.EXTI2_IRQHandler)
    EXTI3_IRQHandler                         0x08000b01   Thumb Code     4  exti.o(i.EXTI3_IRQHandler)
    EXTI4_IRQHandler                         0x08000b05   Thumb Code     4  exti.o(i.EXTI4_IRQHandler)
    EXTI9_5_IRQHandler                       0x08000b09   Thumb Code     4  exti.o(i.EXTI9_5_IRQHandler)
    EXTIInit                                 0x08000b0d   Thumb Code    32  exti.o(i.EXTIInit)
    EXTI_IRQHandler                          0x08000b35   Thumb Code    56  exti.o(i.EXTI_IRQHandler)
    EnableGPIOClk                            0x08000b75   Thumb Code   110  main.o(i.EnableGPIOClk)
    GPIO_Init                                0x08000c09   Thumb Code   162  stm32f4xx_gpio.o(i.GPIO_Init)
    GPIO_PinAFConfig                         0x08000cab   Thumb Code    32  stm32f4xx_gpio.o(i.GPIO_PinAFConfig)
    GPIO_StructInit                          0x08000ccb   Thumb Code    18  stm32f4xx_gpio.o(i.GPIO_StructInit)
    IOConfigGPIO                             0x08000cdd   Thumb Code    68  io.o(i.IOConfigGPIO)
    IOConfigGPIOAF                           0x08000d25   Thumb Code    86  io.o(i.IOConfigGPIOAF)
    IOGetByTag                               0x08000d81   Thumb Code    98  io.o(i.IOGetByTag)
    IOGlobalInit                             0x08000ded   Thumb Code    52  io.o(i.IOGlobalInit)
    IOHi                                     0x08000e2d   Thumb Code    12  io.o(i.IOHi)
    IOInit                                   0x08000e39   Thumb Code     6  io.o(i.IOInit)
    IOLo                                     0x08000e3f   Thumb Code    14  io.o(i.IOLo)
    IOWrite                                  0x08000e4d   Thumb Code    18  io.o(i.IOWrite)
    IO_GPIOPinIdx                            0x08000e5f   Thumb Code    20  io.o(i.IO_GPIOPinIdx)
    IO_GPIOPortIdx                           0x08000e75   Thumb Code    18  io.o(i.IO_GPIOPortIdx)
    IO_GPIO_PinSource                        0x08000e8d   Thumb Code     4  io.o(i.IO_GPIO_PinSource)
    LedInit                                  0x08000e91   Thumb Code   128  led.o(i.LedInit)
    LedSet                                   0x08000f19   Thumb Code    32  led.o(i.LedSet)
    NVIC_Init                                0x08000f41   Thumb Code    96  misc.o(i.NVIC_Init)
    NVIC_PriorityGroupConfig                 0x08000fa5   Thumb Code    10  misc.o(i.NVIC_PriorityGroupConfig)
    OLED_Clear                               0x08000fb9   Thumb Code    40  oled.o(i.OLED_Clear)
    OLED_DrawPoint                           0x08000fe5   Thumb Code    54  oled.o(i.OLED_DrawPoint)
    OLED_Refresh_Gram                        0x08001021   Thumb Code    70  oled.o(i.OLED_Refresh_Gram)
    OLED_ShowChar                            0x0800106d   Thumb Code   134  oled.o(i.OLED_ShowChar)
    OLED_ShowNumber                          0x080010fd   Thumb Code   120  oled.o(i.OLED_ShowNumber)
    OLED_ShowString                          0x08001175   Thumb Code    62  oled.o(i.OLED_ShowString)
    OLED_WR_Byte                             0x080011b5   Thumb Code   110  oled.o(i.OLED_WR_Byte)
    RCC_AHB1PeriphClockCmd                   0x08001229   Thumb Code    18  stm32f4xx_rcc.o(i.RCC_AHB1PeriphClockCmd)
    RCC_AHB1PeriphResetCmd                   0x08001241   Thumb Code    18  stm32f4xx_rcc.o(i.RCC_AHB1PeriphResetCmd)
    RCC_AHB2PeriphClockCmd                   0x08001259   Thumb Code    18  stm32f4xx_rcc.o(i.RCC_AHB2PeriphClockCmd)
    RCC_APB1PeriphClockCmd                   0x08001271   Thumb Code    18  stm32f4xx_rcc.o(i.RCC_APB1PeriphClockCmd)
    RCC_APB1PeriphResetCmd                   0x08001289   Thumb Code    18  stm32f4xx_rcc.o(i.RCC_APB1PeriphResetCmd)
    RCC_APB2PeriphClockCmd                   0x080012a1   Thumb Code    18  stm32f4xx_rcc.o(i.RCC_APB2PeriphClockCmd)
    RCC_APB2PeriphResetCmd                   0x080012b9   Thumb Code    18  stm32f4xx_rcc.o(i.RCC_APB2PeriphResetCmd)
    RCC_ClearFlag                            0x080012d1   Thumb Code    12  stm32f4xx_rcc.o(i.RCC_ClearFlag)
    RCC_ClockCmd                             0x080012e1   Thumb Code    36  rcc.o(i.RCC_ClockCmd)
    RCC_GetClocksFreq                        0x08001305   Thumb Code   132  stm32f4xx_rcc.o(i.RCC_GetClocksFreq)
    RCC_ResetCmd                             0x08001395   Thumb Code    36  rcc.o(i.RCC_ResetCmd)
    Read_Encoder                             0x080013b9   Thumb Code    44  fc_tasks.o(i.Read_Encoder)
    ResetBeeperConfig                        0x080013ed   Thumb Code    12  config.o(i.ResetBeeperConfig)
    ResetLedStatusConfig                     0x080013f9   Thumb Code    32  config.o(i.ResetLedStatusConfig)
    ResetRollAndPitchTrims                   0x08001419   Thumb Code     8  acceleration.o(i.ResetRollAndPitchTrims)
    ResetSerialConfig                        0x08001421   Thumb Code    54  config.o(i.ResetSerialConfig)
    ResetSerialPinConfig                     0x0800145d   Thumb Code    94  config.o(i.ResetSerialPinConfig)
    SPI_Cmd                                  0x080014c1   Thumb Code    20  stm32f4xx_spi.o(i.SPI_Cmd)
    SPI_I2S_DeInit                           0x080014d5   Thumb Code   108  stm32f4xx_spi.o(i.SPI_I2S_DeInit)
    SPI_Init                                 0x08001559   Thumb Code    56  stm32f4xx_spi.o(i.SPI_Init)
    SetSysClock                              0x08001591   Thumb Code   162  system_stm32f4xx.o(i.SetSysClock)
    SysTick_Handler                          0x08001645   Thumb Code    30  system.o(i.SysTick_Handler)
    SysTick_Init                             0x08001669   Thumb Code    24  system.o(i.SysTick_Init)
    SystemInit                               0x0800168d   Thumb Code    74  system_stm32f4xx.o(i.SystemInit)
    TIM1_CC_IRQHandler                       0x0800174d   Thumb Code     8  timer.o(i.TIM1_CC_IRQHandler)
    TIM2_IRQHandler                          0x0800175d   Thumb Code    10  timer.o(i.TIM2_IRQHandler)
    TIM3_IRQHandler                          0x0800176d   Thumb Code     8  timer.o(i.TIM3_IRQHandler)
    TIM4_IRQHandler                          0x0800177d   Thumb Code     8  timer.o(i.TIM4_IRQHandler)
    TIM5_IRQHandler                          0x0800178d   Thumb Code     8  timer.o(i.TIM5_IRQHandler)
    TIM_Cmd                                  0x0800179d   Thumb Code    20  stm32f4xx_tim.o(i.TIM_Cmd)
    TIM_CtrlPWMOutputs                       0x080017b1   Thumb Code    22  stm32f4xx_tim.o(i.TIM_CtrlPWMOutputs)
    TIM_ICInit                               0x080017c7   Thumb Code   172  stm32f4xx_tim.o(i.TIM_ICInit)
    TIM_ICStructInit                         0x08001873   Thumb Code    16  stm32f4xx_tim.o(i.TIM_ICStructInit)
    TIM_OC1Init                              0x08001885   Thumb Code    88  stm32f4xx_tim.o(i.TIM_OC1Init)
    TIM_OC1PreloadConfig                     0x080018e5   Thumb Code    12  stm32f4xx_tim.o(i.TIM_OC1PreloadConfig)
    TIM_OC2Init                              0x080018f1   Thumb Code   120  stm32f4xx_tim.o(i.TIM_OC2Init)
    TIM_OC2PreloadConfig                     0x08001971   Thumb Code    20  stm32f4xx_tim.o(i.TIM_OC2PreloadConfig)
    TIM_OC3Init                              0x08001985   Thumb Code   116  stm32f4xx_tim.o(i.TIM_OC3Init)
    TIM_OC3PreloadConfig                     0x08001a01   Thumb Code    12  stm32f4xx_tim.o(i.TIM_OC3PreloadConfig)
    TIM_OC4Init                              0x08001a0d   Thumb Code    88  stm32f4xx_tim.o(i.TIM_OC4Init)
    TIM_OC4PreloadConfig                     0x08001a6d   Thumb Code    20  stm32f4xx_tim.o(i.TIM_OC4PreloadConfig)
    TIM_OCStructInit                         0x08001a81   Thumb Code    20  stm32f4xx_tim.o(i.TIM_OCStructInit)
    TIM_SelectSlaveMode                      0x08001a95   Thumb Code    16  stm32f4xx_tim.o(i.TIM_SelectSlaveMode)
    TIM_SetIC1Prescaler                      0x08001aa5   Thumb Code    16  stm32f4xx_tim.o(i.TIM_SetIC1Prescaler)
    TIM_SetIC2Prescaler                      0x08001ab5   Thumb Code    24  stm32f4xx_tim.o(i.TIM_SetIC2Prescaler)
    TIM_SetIC3Prescaler                      0x08001acd   Thumb Code    16  stm32f4xx_tim.o(i.TIM_SetIC3Prescaler)
    TIM_SetIC4Prescaler                      0x08001add   Thumb Code    24  stm32f4xx_tim.o(i.TIM_SetIC4Prescaler)
    TIM_TimeBaseInit                         0x08001af5   Thumb Code    96  stm32f4xx_tim.o(i.TIM_TimeBaseInit)
    TIM_TimeBaseStructInit                   0x08001b71   Thumb Code    18  stm32f4xx_tim.o(i.TIM_TimeBaseStructInit)
    USART1_IRQHandler                        0x08001b85   Thumb Code    10  serial_uart_stm32f4xx.o(i.USART1_IRQHandler)
    USART3_IRQHandler                        0x08001b95   Thumb Code    10  serial_uart_stm32f4xx.o(i.USART3_IRQHandler)
    USART6_IRQHandler                        0x08001ba5   Thumb Code    10  serial_uart_stm32f4xx.o(i.USART6_IRQHandler)
    USART_ClearITPendingBit                  0x08001bb5   Thumb Code    12  stm32f4xx_usart.o(i.USART_ClearITPendingBit)
    USART_Cmd                                0x08001bc1   Thumb Code    20  stm32f4xx_usart.o(i.USART_Cmd)
    USART_DMACmd                             0x08001bd5   Thumb Code    16  stm32f4xx_usart.o(i.USART_DMACmd)
    USART_GetITStatus                        0x08001be5   Thumb Code    62  stm32f4xx_usart.o(i.USART_GetITStatus)
    USART_HalfDuplexCmd                      0x08001c23   Thumb Code    20  stm32f4xx_usart.o(i.USART_HalfDuplexCmd)
    USART_ITConfig                           0x08001c37   Thumb Code    48  stm32f4xx_usart.o(i.USART_ITConfig)
    USART_Init                               0x08001c69   Thumb Code   164  stm32f4xx_usart.o(i.USART_Init)
    USART_SendData                           0x08001d15   Thumb Code     8  stm32f4xx_usart.o(i.USART_SendData)
    __ARM_fpclassifyf                        0x08001d1d   Thumb Code    38  fpclassifyf.o(i.__ARM_fpclassifyf)
    __hardfp_acosf                           0x08001d45   Thumb Code   234  acosf.o(i.__hardfp_acosf)
    __hardfp_atan2f                          0x08001e5d   Thumb Code   502  atan2f.o(i.__hardfp_atan2f)
    __hardfp_cosf                            0x080020ad   Thumb Code   280  cosf.o(i.__hardfp_cosf)
    __hardfp_lrintf                          0x080021fd   Thumb Code    72  lrintf.o(i.__hardfp_lrintf)
    __hardfp_round                           0x08002249   Thumb Code   194  round.o(i.__hardfp_round)
    __hardfp_sinf                            0x08002329   Thumb Code   344  sinf.o(i.__hardfp_sinf)
    __hardfp_sqrtf                           0x080024b9   Thumb Code    58  sqrtf.o(i.__hardfp_sqrtf)
    __mathlib_flt_infnan                     0x080024f3   Thumb Code     6  funder.o(i.__mathlib_flt_infnan)
    __mathlib_flt_infnan2                    0x080024f9   Thumb Code     6  funder.o(i.__mathlib_flt_infnan2)
    __mathlib_flt_invalid                    0x08002501   Thumb Code    10  funder.o(i.__mathlib_flt_invalid)
    __mathlib_flt_underflow                  0x08002511   Thumb Code    10  funder.o(i.__mathlib_flt_underflow)
    __mathlib_rredf2                         0x08002521   Thumb Code   316  rredf.o(i.__mathlib_rredf2)
    accSetCalibrationCycles                  0x08002675   Thumb Code     6  acceleration.o(i.accSetCalibrationCycles)
    accUpdate                                0x08002681   Thumb Code   158  acceleration.o(i.accUpdate)
    activateConfig                           0x08002729   Thumb Code    38  config.o(i.activateConfig)
    alignSensors                             0x080027f5   Thumb Code   104  boardalignment.o(i.alignSensors)
    beeperInit                               0x08002861   Thumb Code    58  sound_beeper.o(i.beeperInit)
    biquadFilterApply                        0x080028a1   Thumb Code    66  filter.o(i.biquadFilterApply)
    biquadFilterInit                         0x080028e5   Thumb Code   226  filter.o(i.biquadFilterInit)
    biquadFilterInitLPF                      0x080029d5   Thumb Code    52  filter.o(i.biquadFilterInitLPF)
    bluetoothSerial6Init                     0x08002a09   Thumb Code    40  bluetoothserial6.o(i.bluetoothSerial6Init)
    calculateAccZLowPassFilterRCTimeConstant 0x08002a35   Thumb Code    18  imu.o(i.calculateAccZLowPassFilterRCTimeConstant)
    calculateThrottleAngleScale              0x08002a4d   Thumb Code    26  imu.o(i.calculateThrottleAngleScale)
    checkEEPROMContainsValidData             0x08002a71   Thumb Code     4  config.o(i.checkEEPROMContainsValidData)
    configTimeBase4Encoder                   0x08002a75   Thumb Code    44  timer.o(i.configTimeBase4Encoder)
    cosApprox                                0x08002ab1   Thumb Code    12  maths.o(i.cosApprox)
    createDefaultConfig                      0x08002ac1   Thumb Code   474  config.o(i.createDefaultConfig)
    dcBrushedMotorInit                       0x08002cad   Thumb Code   334  pwm_output.o(i.dcBrushedMotorInit)
    degreesToRadians                         0x08002e05   Thumb Code    18  maths.o(i.degreesToRadians)
    delay                                    0x08002e1d   Thumb Code    22  system.o(i.delay)
    delayMicroseconds                        0x08002e35   Thumb Code    24  system.o(i.delayMicroseconds)
    devClear                                 0x08002e4d   Thumb Code     6  maths.o(i.devClear)
    devPush                                  0x08002e55   Thumb Code    82  maths.o(i.devPush)
    devStandardDeviation                     0x08002ead   Thumb Code    14  maths.o(i.devStandardDeviation)
    devVariance                              0x08002ebd   Thumb Code    32  maths.o(i.devVariance)
    fcTasksInit                              0x08002ee1   Thumb Code    18  fc_tasks.o(i.fcTasksInit)
    featureClear                             0x08002ef5   Thumb Code    10  feature.o(i.featureClear)
    featureConfigured                        0x08002f05   Thumb Code    16  feature.o(i.featureConfigured)
    featureSet                               0x08002f19   Thumb Code    10  feature.o(i.featureSet)
    findNextSerialPortConfig                 0x08002f29   Thumb Code    36  serial.o(i.findNextSerialPortConfig)
    findSerialPortConfig                     0x08002f51   Thumb Code    10  serial.o(i.findSerialPortConfig)
    findSerialPortIndexByIdentifier          0x08002f61   Thumb Code    24  serial.o(i.findSerialPortIndexByIdentifier)
    findSerialPortUsageByIdentifier          0x08002f7d   Thumb Code    36  serial.o(i.findSerialPortUsageByIdentifier)
    fputc                                    0x08002fa5   Thumb Code    14  main.o(i.fputc)
    gyroSetCalibrationCycles                 0x08002fd9   Thumb Code    12  gyro.o(i.gyroSetCalibrationCycles)
    gyroUpdate                               0x08002fe9   Thumb Code   310  gyro.o(i.gyroUpdate)
    hcsr04_ultrasound1_get_distance          0x0800313d   Thumb Code    12  ultrasound_hcsr04.o(i.hcsr04_ultrasound1_get_distance)
    hcsr04_ultrasound1_start_sequence        0x0800314d   Thumb Code    42  ultrasound_hcsr04.o(i.hcsr04_ultrasound1_start_sequence)
    hcsr04_ultrasound2_get_distance          0x0800317d   Thumb Code    12  ultrasound_hcsr04.o(i.hcsr04_ultrasound2_get_distance)
    hcsr04_ultrasound2_start_sequence        0x0800318d   Thumb Code    42  ultrasound_hcsr04.o(i.hcsr04_ultrasound2_start_sequence)
    hcsr04_ultrasound3_get_distance          0x080031bd   Thumb Code    12  ultrasound_hcsr04.o(i.hcsr04_ultrasound3_get_distance)
    hcsr04_ultrasound3_start_sequence        0x080031cd   Thumb Code    46  ultrasound_hcsr04.o(i.hcsr04_ultrasound3_start_sequence)
    hcsr04_ultrasound4_get_distance          0x08003201   Thumb Code    12  ultrasound_hcsr04.o(i.hcsr04_ultrasound4_get_distance)
    hcsr04_ultrasound4_start_sequence        0x08003211   Thumb Code    46  ultrasound_hcsr04.o(i.hcsr04_ultrasound4_start_sequence)
    hcsr04_ultrasound5_get_distance          0x08003245   Thumb Code    12  ultrasound_hcsr04.o(i.hcsr04_ultrasound5_get_distance)
    hcsr04_ultrasound5_start_sequence        0x08003255   Thumb Code    46  ultrasound_hcsr04.o(i.hcsr04_ultrasound5_start_sequence)
    hcsr04_ultrasound6_get_distance          0x08003289   Thumb Code    12  ultrasound_hcsr04.o(i.hcsr04_ultrasound6_get_distance)
    hcsr04_ultrasound6_start_sequence        0x08003299   Thumb Code    46  ultrasound_hcsr04.o(i.hcsr04_ultrasound6_start_sequence)
    imuConfigure                             0x08003461   Thumb Code    80  imu.o(i.imuConfigure)
    imuInit                                  0x080034bd   Thumb Code    60  imu.o(i.imuInit)
    initEEPROM                               0x08003861   Thumb Code     2  config_eeprom.o(i.initEEPROM)
    intFeatureClearAll                       0x08003863   Thumb Code     6  feature.o(i.intFeatureClearAll)
    intFeatureSet                            0x08003869   Thumb Code     8  feature.o(i.intFeatureSet)
    isAccelerationCalibrationComplete        0x08003885   Thumb Code    14  acceleration.o(i.isAccelerationCalibrationComplete)
    isGyroCalibrationComplete                0x08003899   Thumb Code    14  gyro.o(i.isGyroCalibrationComplete)
    isUartTransmitBufferEmpty                0x080038bd   Thumb Code    26  serial_uart.o(i.isUartTransmitBufferEmpty)
    latchActiveFeatures                      0x080038d9   Thumb Code    10  feature.o(i.latchActiveFeatures)
    limitMotorPwm                            0x080038ed   Thumb Code    42  fc_tasks.o(i.limitMotorPwm)
    main                                     0x08003919   Thumb Code   194  main.o(i.main)
    micros                                   0x080039e9   Thumb Code    74  system.o(i.micros)
    microsISR                                0x08003a3d   Thumb Code    72  system.o(i.microsISR)
    millis                                   0x08003a89   Thumb Code     6  system.o(i.millis)
    modeSwitchBtnPollInit                    0x08003a95   Thumb Code    32  button.o(i.modeSwitchBtnPollInit)
    oledInit                                 0x08003ab9   Thumb Code   378  oled.o(i.oledInit)
    oled_pow                                 0x08003c45   Thumb Code    22  oled.o(i.oled_pow)
    openSerialPort                           0x08003c5d   Thumb Code    94  serial.o(i.openSerialPort)
    pwmEncoderICConfig                       0x08003e25   Thumb Code    70  rx_pwm.o(i.pwmEncoderICConfig)
    pwmEncoderInit                           0x08003e71   Thumb Code   104  rx_pwm.o(i.pwmEncoderInit)
    pwmWriteDcBrushedMotor                   0x08003edd   Thumb Code    14  pwm_output.o(i.pwmWriteDcBrushedMotor)
    queueAdd                                 0x08003ef1   Thumb Code    86  scheduler.o(i.queueAdd)
    queueClear                               0x08003f51   Thumb Code    20  scheduler.o(i.queueClear)
    queueContains                            0x08003f6d   Thumb Code    34  scheduler.o(i.queueContains)
    queueFirst                               0x08003f99   Thumb Code    12  scheduler.o(i.queueFirst)
    queueNext                                0x08003fad   Thumb Code    16  scheduler.o(i.queueNext)
    queueRemove                              0x08003fc5   Thumb Code    54  scheduler.o(i.queueRemove)
    readEEPROM                               0x08004005   Thumb Code    24  config_eeprom.o(i.readEEPROM)
    resetEEPROM                              0x08004021   Thumb Code    18  config.o(i.resetEEPROM)
    rxSerial3TestInit                        0x08004039   Thumb Code    40  rxserial3test.o(i.rxSerial3TestInit)
    rxSerial3TestWrite                       0x08004065   Thumb Code    10  rxserial3test.o(i.rxSerial3TestWrite)
    scheduler                                0x08004075   Thumb Code   364  scheduler.o(i.scheduler)
    schedulerInit                            0x080041e5   Thumb Code    22  scheduler.o(i.schedulerInit)
    sensors                                  0x08004205   Thumb Code    16  runtime_config.o(i.sensors)
    serialInit                               0x08004219   Thumb Code    38  serial.o(i.serialInit)
    serialUART                               0x0800424d   Thumb Code   264  serial_uart_stm32f4xx.o(i.serialUART)
    serialUART1                              0x0800435d   Thumb Code    12  serial_uart_stm32f4xx.o(i.serialUART1)
    serialUART3                              0x08004369   Thumb Code    12  serial_uart_stm32f4xx.o(i.serialUART3)
    serialUART6                              0x08004375   Thumb Code    12  serial_uart_stm32f4xx.o(i.serialUART6)
    serialWrite                              0x08004381   Thumb Code     6  serial.o(i.serialWrite)
    setAccelerationFilter                    0x08004389   Thumb Code    58  acceleration.o(i.setAccelerationFilter)
    setAccelerationTrims                     0x080043cd   Thumb Code     6  acceleration.o(i.setAccelerationTrims)
    setProfile                               0x080043d9   Thumb Code    42  config.o(i.setProfile)
    setTaskEnabled                           0x0800440d   Thumb Code    44  scheduler.o(i.setTaskEnabled)
    sinApprox                                0x08004441   Thumb Code   134  maths.o(i.sinApprox)
    spiInit                                  0x080044f5   Thumb Code    26  bus_spi.o(i.spiInit)
    spiInitDevice                            0x08004511   Thumb Code   258  bus_spi.o(i.spiInitDevice)
    sqrtf                                    0x08004629   Thumb Code    62  sqrtf.o(i.sqrtf)
    systemBeep                               0x08004669   Thumb Code    18  sound_beeper.o(i.systemBeep)
    systemInit                               0x08004681   Thumb Code    70  main.o(i.systemInit)
    targetConfiguration                      0x080046d1   Thumb Code   314  config.o(i.targetConfiguration)
    taskIMUUpdateAttitude                    0x0800480d   Thumb Code    40  imu.o(i.taskIMUUpdateAttitude)
    taskSystem                               0x08004ae1   Thumb Code    28  scheduler.o(i.taskSystem)
    timerChCCR                               0x08004beb   Thumb Code    10  timer.o(i.timerChCCR)
    timerGetByTag                            0x08004bf5   Thumb Code    54  timer.o(i.timerGetByTag)
    timerInit                                0x08004c31   Thumb Code   120  timer.o(i.timerInit)
    timerOCInit                              0x08004cb5   Thumb Code    40  timer.o(i.timerOCInit)
    timerOCPreloadConfig                     0x08004cdd   Thumb Code    40  timer.o(i.timerOCPreloadConfig)
    timerRCC                                 0x08004d05   Thumb Code    30  timer.o(i.timerRCC)
    uartIrqHandler                           0x08004d29   Thumb Code   214  serial_uart_stm32f4xx.o(i.uartIrqHandler)
    uartOpen                                 0x08004e05   Thumb Code   360  serial_uart.o(i.uartOpen)
    uartRead                                 0x08004f79   Thumb Code    44  serial_uart.o(i.uartRead)
    uartSetBaudRate                          0x08005031   Thumb Code     6  serial_uart.o(i.uartSetBaudRate)
    uartSetMode                              0x08005037   Thumb Code     6  serial_uart.o(i.uartSetMode)
    uartStartTxDMA                           0x0800503d   Thumb Code    74  serial_uart.o(i.uartStartTxDMA)
    uartTotalRxBytesWaiting                  0x08005087   Thumb Code    24  serial_uart.o(i.uartTotalRxBytesWaiting)
    uartTotalTxBytesFree                     0x0800509f   Thumb Code    38  serial_uart.o(i.uartTotalTxBytesFree)
    uartWrite                                0x080050c5   Thumb Code    48  serial_uart.o(i.uartWrite)
    ultrasound1Read                          0x080050f5   Thumb Code    18  ultrasound.o(i.ultrasound1Read)
    ultrasound1Update                        0x08005107   Thumb Code     4  ultrasound.o(i.ultrasound1Update)
    ultrasound2Read                          0x0800510b   Thumb Code    18  ultrasound.o(i.ultrasound2Read)
    ultrasound2Update                        0x0800511d   Thumb Code     4  ultrasound.o(i.ultrasound2Update)
    ultrasound3Read                          0x08005121   Thumb Code    18  ultrasound.o(i.ultrasound3Read)
    ultrasound3Update                        0x08005133   Thumb Code     4  ultrasound.o(i.ultrasound3Update)
    ultrasound4Read                          0x08005137   Thumb Code    18  ultrasound.o(i.ultrasound4Read)
    ultrasound4Update                        0x08005149   Thumb Code     4  ultrasound.o(i.ultrasound4Update)
    ultrasound5Read                          0x0800514d   Thumb Code    18  ultrasound.o(i.ultrasound5Read)
    ultrasound5Update                        0x0800515f   Thumb Code     4  ultrasound.o(i.ultrasound5Update)
    ultrasound6Read                          0x08005163   Thumb Code    18  ultrasound.o(i.ultrasound6Read)
    ultrasound6Update                        0x08005175   Thumb Code     4  ultrasound.o(i.ultrasound6Update)
    updateMotorPwm                           0x08005179   Thumb Code   140  fc_tasks.o(i.updateMotorPwm)
    validateAndFixConfig                     0x08005209   Thumb Code    80  config.o(i.validateAndFixConfig)
    validateAndFixGyroConfig                 0x0800525d   Thumb Code   178  config.o(i.validateAndFixGyroConfig)
    __aeabi_d2f                              0x08005325   Thumb Code     0  d2f.o(x$fpl$d2f)
    _d2f                                     0x08005325   Thumb Code    98  d2f.o(x$fpl$d2f)
    __aeabi_dadd                             0x08005389   Thumb Code     0  daddsub_clz.o(x$fpl$dadd)
    _dadd                                    0x08005389   Thumb Code   332  daddsub_clz.o(x$fpl$dadd)
    __fpl_dcmp_Inf                           0x080054d9   Thumb Code    24  dcmpi.o(x$fpl$dcmpinf)
    __aeabi_ddiv                             0x080054f1   Thumb Code     0  ddiv.o(x$fpl$ddiv)
    _ddiv                                    0x080054f1   Thumb Code   552  ddiv.o(x$fpl$ddiv)
    __aeabi_d2iz                             0x080057a1   Thumb Code     0  dfix.o(x$fpl$dfix)
    _dfix                                    0x080057a1   Thumb Code    94  dfix.o(x$fpl$dfix)
    __aeabi_i2d                              0x080057ff   Thumb Code     0  dflt_clz.o(x$fpl$dflt)
    _dflt                                    0x080057ff   Thumb Code    46  dflt_clz.o(x$fpl$dflt)
    __aeabi_cdcmple                          0x0800582d   Thumb Code     0  dleqf.o(x$fpl$dleqf)
    _dcmple                                  0x0800582d   Thumb Code   120  dleqf.o(x$fpl$dleqf)
    __fpl_dcmple_InfNaN                      0x0800588f   Thumb Code     0  dleqf.o(x$fpl$dleqf)
    __aeabi_dmul                             0x080058a5   Thumb Code     0  dmul.o(x$fpl$dmul)
    _dmul                                    0x080058a5   Thumb Code   332  dmul.o(x$fpl$dmul)
    __fpl_dnaninf                            0x080059f9   Thumb Code   156  dnaninf.o(x$fpl$dnaninf)
    __fpl_dretinf                            0x08005a95   Thumb Code    12  dretinf.o(x$fpl$dretinf)
    __aeabi_cdrcmple                         0x08005aa1   Thumb Code     0  drleqf.o(x$fpl$drleqf)
    _drcmple                                 0x08005aa1   Thumb Code   108  drleqf.o(x$fpl$drleqf)
    _drnd                                    0x08005b0d   Thumb Code   180  drnd.o(x$fpl$drnd)
    __aeabi_dsub                             0x08005bc1   Thumb Code     0  daddsub_clz.o(x$fpl$dsub)
    _dsub                                    0x08005bc1   Thumb Code   464  daddsub_clz.o(x$fpl$dsub)
    __aeabi_f2d                              0x08005d95   Thumb Code     0  f2d.o(x$fpl$f2d)
    _f2d                                     0x08005d95   Thumb Code    86  f2d.o(x$fpl$f2d)
    _ffix_r                                  0x08005deb   Thumb Code    14  ffix.o(x$fpl$ffixr)
    __fpl_fnaninf                            0x08005df9   Thumb Code   140  fnaninf.o(x$fpl$fnaninf)
    _fp_init                                 0x08005e85   Thumb Code    10  fpinit.o(x$fpl$fpinit)
    __fplib_config_fpu_vfp                   0x08005e8d   Thumb Code     0  fpinit.o(x$fpl$fpinit)
    __fplib_config_pureend_doubles           0x08005e8d   Thumb Code     0  fpinit.o(x$fpl$fpinit)
    __fpl_fretinf                            0x08005e8f   Thumb Code    10  fretinf.o(x$fpl$fretinf)
    _frnd                                    0x08005e99   Thumb Code    96  frnd.o(x$fpl$frnd)
    __I$use$fp                               0x08005ef8   Number         0  usenofp.o(x$fpl$usenofp)
    timerHardware                            0x08005ef8   Data         168  target.o(.constdata)
    ioPortDefs                               0x08005fbf   Data           6  io.o(.constdata)
    serialPortIdentifiers                    0x08005fd0   Data           3  serial.o(.constdata)
    uartVTable                               0x08005fd4   Data          40  serial_uart.o(.constdata)
    timerDefinitions                         0x08005ffc   Data         112  timer_stm32f4xx.o(.constdata)
    oled_asc2_1206                           0x0800606c   Data        1140  oled.o(.constdata)
    oled_asc2_1608                           0x080064e0   Data        1520  oled.o(.constdata)
    Region$$Table$$Base                      0x08006c3c   Number         0  anon$$obj.o(Region$$Table)
    Region$$Table$$Limit                     0x08006c5c   Number         0  anon$$obj.o(Region$$Table)
    systemState                              0x20000010   Data           1  main.o(.data)
    __stdout                                 0x20000014   Data           4  main.o(.data)
    SystemCoreClock                          0x20000018   Data           4  system_stm32f4xx.o(.data)
    AHBPrescTable                            0x2000001c   Data          16  system_stm32f4xx.o(.data)
    sysTickUptime                            0x20000030   Data           4  system.o(.data)
    buttonPressed                            0x20000048   Data           1  button.o(.data)
    driveForward                             0x20000fb8   Data           1  serial_uart_stm32f4xx.o(.data)
    driveReverse                             0x20000fb9   Data           1  serial_uart_stm32f4xx.o(.data)
    turnLeft                                 0x20000fba   Data           1  serial_uart_stm32f4xx.o(.data)
    turnRight                                0x20000fbb   Data           1  serial_uart_stm32f4xx.o(.data)
    ultrasound1_measurement                  0x20000ff0   Data           4  ultrasound_hcsr04.o(.data)
    ultrasound2_measurement                  0x20000ff4   Data           4  ultrasound_hcsr04.o(.data)
    ultrasound3_measurement                  0x20000ff8   Data           4  ultrasound_hcsr04.o(.data)
    ultrasound4_measurement                  0x20000ffc   Data           4  ultrasound_hcsr04.o(.data)
    ultrasound5_measurement                  0x20001000   Data           4  ultrasound_hcsr04.o(.data)
    ultrasound6_measurement                  0x20001004   Data           4  ultrasound_hcsr04.o(.data)
    currentProfile                           0x20001084   Data           4  config.o(.data)
    currentControlRateProfile                0x20001088   Data           4  config.o(.data)
    isMotorActivated                         0x2000108c   Data           1  fc_tasks.o(.data)
    stopFlag                                 0x2000108d   Data           1  fc_tasks.o(.data)
    isCollisionAvoidanceModeActivated        0x2000108e   Data           1  fc_tasks.o(.data)
    balanceSetpoint                          0x2000109c   Data           4  fc_tasks.o(.data)
    Encoder1                                 0x200010c4   Data           4  fc_tasks.o(.data)
    Encoder2                                 0x200010c8   Data           4  fc_tasks.o(.data)
    motor1Pwm                                0x200010cc   Data           4  fc_tasks.o(.data)
    motor2Pwm                                0x200010d0   Data           4  fc_tasks.o(.data)
    cfTasks                                  0x200010d4   Data        1092  fc_tasks.o(.data)
    armingFlags                              0x20001518   Data           1  runtime_config.o(.data)
    flightModeFlags                          0x2000151c   Data           2  runtime_config.o(.data)
    stateFlags                               0x20001524   Data           1  runtime_config.o(.data)
    smallAngleCosZ                           0x20001528   Data           4  imu.o(.data)
    magneticDeclination                      0x2000153c   Data           4  imu.o(.data)
    accVelScale                              0x20001550   Data           4  imu.o(.data)
    fc_acc                                   0x20001554   Data           4  imu.o(.data)
    throttleAngleScale                       0x20001558   Data           4  imu.o(.data)
    attitude                                 0x20001560   Data           6  imu.o(.data)
    temperatureData                          0x20001578   Data           4  gyro.o(.data)
    averageSystemLoadPercentage              0x20001592   Data           2  scheduler.o(.data)
    checkFuncMaxExecutionTime                0x200015a8   Data           4  scheduler.o(.data)
    checkFuncTotalExecutionTime              0x200015ac   Data           4  scheduler.o(.data)
    checkFuncMovingSumExecutionTime          0x200015b0   Data           4  scheduler.o(.data)
    clocks                                   0x200015b4   Data          16  system.o(.bss)
    extiChannelRecs                          0x200015c4   Data          64  exti.o(.bss)
    ioRecs                                   0x20001604   Data         640  io.o(.bss)
    timerConfig                              0x200018e0   Data         440  timer.o(.bss)
    timerChannelInfo                         0x20001a98   Data          14  timer.o(.bss)
    timerInfo                                0x20001aa6   Data          11  timer.o(.bss)
    OLED_GRAM                                0x20001ab1   Data        1024  oled.o(.bss)
    masterConfig                             0x20001eb4   Data         948  config.o(.bss)
    acc                                      0x200022a4   Data          64  acceleration.o(.bss)
    gyro                                     0x200024b8   Data          88  gyro.o(.bss)
    mag                                      0x20002564   Data          28  compass.o(.bss)
    taskQueueArray                           0x20002580   Data          88  scheduler.o(.bss)
    __libspace_start                         0x200025d8   Data          96  libspace.o(.bss)
    __temporary_stack_top$libspace           0x20002638   Data           0  libspace.o(.bss)



==============================================================================

Memory Map of the image

  Image Entry point : 0x08000189

  Load Region LR_IROM1 (Base: 0x08000000, Size: 0x00008210, Max: 0x00100000, ABSOLUTE, COMPRESSED[0x00006e20])

    Execution Region ER_IROM1 (Exec base: 0x08000000, Load base: 0x08000000, Size: 0x00006c5c, Max: 0x00100000, ABSOLUTE)

    Exec Addr    Load Addr    Size         Type   Attr      Idx    E Section Name        Object

    0x08000000   0x08000000   0x00000188   Data   RO            3    RESET               startup_stm32f407xx.o
    0x08000188   0x08000188   0x00000008   Code   RO         5921  * !!!main             c_w.l(__main.o)
    0x08000190   0x08000190   0x00000034   Code   RO         6286    !!!scatter          c_w.l(__scatter.o)
    0x080001c4   0x080001c4   0x0000005a   Code   RO         6284    !!dczerorl2         c_w.l(__dczerorl2.o)
    0x0800021e   0x0800021e   0x00000002   PAD
    0x08000220   0x08000220   0x0000001c   Code   RO         6288    !!handler_zi        c_w.l(__scatter_zi.o)
    0x0800023c   0x0800023c   0x00000000   Code   RO         5902    .ARM.Collect$$_printf_percent$$00000000  c_w.l(_printf_percent.o)
    0x0800023c   0x0800023c   0x00000006   Code   RO         5900    .ARM.Collect$$_printf_percent$$00000009  c_w.l(_printf_d.o)
    0x08000242   0x08000242   0x00000006   Code   RO         5899    .ARM.Collect$$_printf_percent$$00000014  c_w.l(_printf_s.o)
    0x08000248   0x08000248   0x00000004   Code   RO         6060    .ARM.Collect$$_printf_percent$$00000017  c_w.l(_printf_percent_end.o)
    0x0800024c   0x0800024c   0x00000002   Code   RO         6155    .ARM.Collect$$libinit$$00000000  c_w.l(libinit.o)
    0x0800024e   0x0800024e   0x00000004   Code   RO         6160    .ARM.Collect$$libinit$$00000001  c_w.l(libinit2.o)
    0x08000252   0x08000252   0x00000000   Code   RO         6163    .ARM.Collect$$libinit$$00000004  c_w.l(libinit2.o)
    0x08000252   0x08000252   0x00000000   Code   RO         6166    .ARM.Collect$$libinit$$0000000A  c_w.l(libinit2.o)
    0x08000252   0x08000252   0x00000000   Code   RO         6168    .ARM.Collect$$libinit$$0000000C  c_w.l(libinit2.o)
    0x08000252   0x08000252   0x00000000   Code   RO         6170    .ARM.Collect$$libinit$$0000000E  c_w.l(libinit2.o)
    0x08000252   0x08000252   0x00000000   Code   RO         6173    .ARM.Collect$$libinit$$00000011  c_w.l(libinit2.o)
    0x08000252   0x08000252   0x00000000   Code   RO         6175    .ARM.Collect$$libinit$$00000013  c_w.l(libinit2.o)
    0x08000252   0x08000252   0x00000000   Code   RO         6177    .ARM.Collect$$libinit$$00000015  c_w.l(libinit2.o)
    0x08000252   0x08000252   0x00000000   Code   RO         6179    .ARM.Collect$$libinit$$00000017  c_w.l(libinit2.o)
    0x08000252   0x08000252   0x00000000   Code   RO         6181    .ARM.Collect$$libinit$$00000019  c_w.l(libinit2.o)
    0x08000252   0x08000252   0x00000000   Code   RO         6183    .ARM.Collect$$libinit$$0000001B  c_w.l(libinit2.o)
    0x08000252   0x08000252   0x00000000   Code   RO         6185    .ARM.Collect$$libinit$$0000001D  c_w.l(libinit2.o)
    0x08000252   0x08000252   0x00000000   Code   RO         6187    .ARM.Collect$$libinit$$0000001F  c_w.l(libinit2.o)
    0x08000252   0x08000252   0x00000000   Code   RO         6189    .ARM.Collect$$libinit$$00000021  c_w.l(libinit2.o)
    0x08000252   0x08000252   0x00000000   Code   RO         6191    .ARM.Collect$$libinit$$00000023  c_w.l(libinit2.o)
    0x08000252   0x08000252   0x00000000   Code   RO         6193    .ARM.Collect$$libinit$$00000025  c_w.l(libinit2.o)
    0x08000252   0x08000252   0x00000000   Code   RO         6197    .ARM.Collect$$libinit$$0000002C  c_w.l(libinit2.o)
    0x08000252   0x08000252   0x00000000   Code   RO         6199    .ARM.Collect$$libinit$$0000002E  c_w.l(libinit2.o)
    0x08000252   0x08000252   0x00000000   Code   RO         6201    .ARM.Collect$$libinit$$00000030  c_w.l(libinit2.o)
    0x08000252   0x08000252   0x00000000   Code   RO         6203    .ARM.Collect$$libinit$$00000032  c_w.l(libinit2.o)
    0x08000252   0x08000252   0x00000002   Code   RO         6204    .ARM.Collect$$libinit$$00000033  c_w.l(libinit2.o)
    0x08000254   0x08000254   0x00000002   Code   RO         6224    .ARM.Collect$$libshutdown$$00000000  c_w.l(libshutdown.o)
    0x08000256   0x08000256   0x00000000   Code   RO         6237    .ARM.Collect$$libshutdown$$00000002  c_w.l(libshutdown2.o)
    0x08000256   0x08000256   0x00000000   Code   RO         6239    .ARM.Collect$$libshutdown$$00000004  c_w.l(libshutdown2.o)
    0x08000256   0x08000256   0x00000000   Code   RO         6242    .ARM.Collect$$libshutdown$$00000007  c_w.l(libshutdown2.o)
    0x08000256   0x08000256   0x00000000   Code   RO         6245    .ARM.Collect$$libshutdown$$0000000A  c_w.l(libshutdown2.o)
    0x08000256   0x08000256   0x00000000   Code   RO         6247    .ARM.Collect$$libshutdown$$0000000C  c_w.l(libshutdown2.o)
    0x08000256   0x08000256   0x00000000   Code   RO         6250    .ARM.Collect$$libshutdown$$0000000F  c_w.l(libshutdown2.o)
    0x08000256   0x08000256   0x00000002   Code   RO         6251    .ARM.Collect$$libshutdown$$00000010  c_w.l(libshutdown2.o)
    0x08000258   0x08000258   0x00000000   Code   RO         6049    .ARM.Collect$$rtentry$$00000000  c_w.l(__rtentry.o)
    0x08000258   0x08000258   0x00000000   Code   RO         6104    .ARM.Collect$$rtentry$$00000002  c_w.l(__rtentry2.o)
    0x08000258   0x08000258   0x00000006   Code   RO         6116    .ARM.Collect$$rtentry$$00000004  c_w.l(__rtentry4.o)
    0x0800025e   0x0800025e   0x00000000   Code   RO         6106    .ARM.Collect$$rtentry$$00000009  c_w.l(__rtentry2.o)
    0x0800025e   0x0800025e   0x00000004   Code   RO         6107    .ARM.Collect$$rtentry$$0000000A  c_w.l(__rtentry2.o)
    0x08000262   0x08000262   0x00000000   Code   RO         6109    .ARM.Collect$$rtentry$$0000000C  c_w.l(__rtentry2.o)
    0x08000262   0x08000262   0x00000008   Code   RO         6110    .ARM.Collect$$rtentry$$0000000D  c_w.l(__rtentry2.o)
    0x0800026a   0x0800026a   0x00000002   Code   RO         6156    .ARM.Collect$$rtexit$$00000000  c_w.l(rtexit.o)
    0x0800026c   0x0800026c   0x00000000   Code   RO         6206    .ARM.Collect$$rtexit$$00000002  c_w.l(rtexit2.o)
    0x0800026c   0x0800026c   0x00000004   Code   RO         6207    .ARM.Collect$$rtexit$$00000003  c_w.l(rtexit2.o)
    0x08000270   0x08000270   0x00000006   Code   RO         6208    .ARM.Collect$$rtexit$$00000004  c_w.l(rtexit2.o)
    0x08000276   0x08000276   0x00000002   PAD
    0x08000278   0x08000278   0x00000040   Code   RO            4    .text               startup_stm32f407xx.o
    0x080002b8   0x080002b8   0x00000018   Code   RO         5871    .text               c_w.l(noretval__2printf.o)
    0x080002d0   0x080002d0   0x00000068   Code   RO         5873    .text               c_w.l(__printf.o)
    0x08000338   0x08000338   0x00000052   Code   RO         5875    .text               c_w.l(_printf_str.o)
    0x0800038a   0x0800038a   0x00000002   PAD
    0x0800038c   0x0800038c   0x00000078   Code   RO         5877    .text               c_w.l(_printf_dec.o)
    0x08000404   0x08000404   0x00000064   Code   RO         5907    .text               c_w.l(rt_memcpy_w.o)
    0x08000468   0x08000468   0x0000007a   Code   RO         5909    .text               c_w.l(rt_memmove_w.o)
    0x080004e2   0x080004e2   0x00000010   Code   RO         5911    .text               c_w.l(aeabi_memset.o)
    0x080004f2   0x080004f2   0x00000044   Code   RO         5913    .text               c_w.l(rt_memclr.o)
    0x08000536   0x08000536   0x0000004e   Code   RO         5915    .text               c_w.l(rt_memclr_w.o)
    0x08000584   0x08000584   0x00000056   Code   RO         5917    .text               c_w.l(strncpy.o)
    0x080005da   0x080005da   0x00000006   Code   RO         5919    .text               c_w.l(heapauxi.o)
    0x080005e0   0x080005e0   0x00000016   Code   RO         6050    .text               c_w.l(_rserrno.o)
    0x080005f6   0x080005f6   0x000000b2   Code   RO         6054    .text               c_w.l(_printf_intcommon.o)
    0x080006a8   0x080006a8   0x0000002c   Code   RO         6056    .text               c_w.l(_printf_char.o)
    0x080006d4   0x080006d4   0x00000024   Code   RO         6058    .text               c_w.l(_printf_char_file.o)
    0x080006f8   0x080006f8   0x00000008   Code   RO         6123    .text               c_w.l(rt_errno_addr_intlibspace.o)
    0x08000700   0x08000700   0x00000030   Code   RO         6125    .text               c_w.l(_printf_char_common.o)
    0x08000730   0x08000730   0x00000008   Code   RO         6127    .text               c_w.l(ferror.o)
    0x08000738   0x08000738   0x00000008   Code   RO         6133    .text               c_w.l(libspace.o)
    0x08000740   0x08000740   0x0000004a   Code   RO         6136    .text               c_w.l(sys_stackheap_outer.o)
    0x0800078a   0x0800078a   0x00000012   Code   RO         6148    .text               c_w.l(exit.o)
    0x0800079c   0x0800079c   0x0000000c   Code   RO         6216    .text               c_w.l(sys_exit.o)
    0x080007a8   0x080007a8   0x00000002   Code   RO         6227    .text               c_w.l(use_no_semi.o)
    0x080007aa   0x080007aa   0x00000000   Code   RO         6229    .text               c_w.l(indicate_semi.o)
    0x080007aa   0x080007aa   0x00000002   PAD
    0x080007ac   0x080007ac   0x00000010   Code   RO         2889    i.DMA1_Stream0_IRQHandler  dma_stm32f4xx.o
    0x080007bc   0x080007bc   0x00000014   Code   RO         2890    i.DMA1_Stream1_IRQHandler  dma_stm32f4xx.o
    0x080007d0   0x080007d0   0x00000014   Code   RO         2891    i.DMA1_Stream2_IRQHandler  dma_stm32f4xx.o
    0x080007e4   0x080007e4   0x00000014   Code   RO         2892    i.DMA1_Stream3_IRQHandler  dma_stm32f4xx.o
    0x080007f8   0x080007f8   0x00000014   Code   RO         2893    i.DMA1_Stream4_IRQHandler  dma_stm32f4xx.o
    0x0800080c   0x0800080c   0x00000014   Code   RO         2894    i.DMA1_Stream5_IRQHandler  dma_stm32f4xx.o
    0x08000820   0x08000820   0x00000014   Code   RO         2895    i.DMA1_Stream6_IRQHandler  dma_stm32f4xx.o
    0x08000834   0x08000834   0x00000014   Code   RO         2896    i.DMA1_Stream7_IRQHandler  dma_stm32f4xx.o
    0x08000848   0x08000848   0x00000014   Code   RO         2897    i.DMA2_Stream0_IRQHandler  dma_stm32f4xx.o
    0x0800085c   0x0800085c   0x00000014   Code   RO         2898    i.DMA2_Stream1_IRQHandler  dma_stm32f4xx.o
    0x08000870   0x08000870   0x00000018   Code   RO         2899    i.DMA2_Stream2_IRQHandler  dma_stm32f4xx.o
    0x08000888   0x08000888   0x00000018   Code   RO         2900    i.DMA2_Stream3_IRQHandler  dma_stm32f4xx.o
    0x080008a0   0x080008a0   0x00000018   Code   RO         2901    i.DMA2_Stream4_IRQHandler  dma_stm32f4xx.o
    0x080008b8   0x080008b8   0x00000018   Code   RO         2902    i.DMA2_Stream5_IRQHandler  dma_stm32f4xx.o
    0x080008d0   0x080008d0   0x00000018   Code   RO         2903    i.DMA2_Stream6_IRQHandler  dma_stm32f4xx.o
    0x080008e8   0x080008e8   0x00000018   Code   RO         2904    i.DMA2_Stream7_IRQHandler  dma_stm32f4xx.o
    0x08000900   0x08000900   0x00000014   Code   RO          123    i.DMA_Cmd           stm32f4xx_dma.o
    0x08000914   0x08000914   0x00000124   Code   RO          124    i.DMA_DeInit        stm32f4xx_dma.o
    0x08000a38   0x08000a38   0x00000006   Code   RO          129    i.DMA_GetCurrDataCounter  stm32f4xx_dma.o
    0x08000a3e   0x08000a3e   0x0000002c   Code   RO          134    i.DMA_ITConfig      stm32f4xx_dma.o
    0x08000a6a   0x08000a6a   0x00000002   PAD
    0x08000a6c   0x08000a6c   0x00000054   Code   RO          135    i.DMA_Init          stm32f4xx_dma.o
    0x08000ac0   0x08000ac0   0x0000000a   Code   RO          136    i.DMA_MemoryTargetConfig  stm32f4xx_dma.o
    0x08000aca   0x08000aca   0x00000004   Code   RO          138    i.DMA_SetCurrDataCounter  stm32f4xx_dma.o
    0x08000ace   0x08000ace   0x00000022   Code   RO          139    i.DMA_StructInit    stm32f4xx_dma.o
    0x08000af0   0x08000af0   0x00000004   Code   RO         3027    i.EXTI0_IRQHandler  exti.o
    0x08000af4   0x08000af4   0x00000004   Code   RO         3028    i.EXTI15_10_IRQHandler  exti.o
    0x08000af8   0x08000af8   0x00000004   Code   RO         3029    i.EXTI1_IRQHandler  exti.o
    0x08000afc   0x08000afc   0x00000004   Code   RO         3030    i.EXTI2_IRQHandler  exti.o
    0x08000b00   0x08000b00   0x00000004   Code   RO         3031    i.EXTI3_IRQHandler  exti.o
    0x08000b04   0x08000b04   0x00000004   Code   RO         3032    i.EXTI4_IRQHandler  exti.o
    0x08000b08   0x08000b08   0x00000004   Code   RO         3033    i.EXTI9_5_IRQHandler  exti.o
    0x08000b0c   0x08000b0c   0x00000028   Code   RO         3037    i.EXTIInit          exti.o
    0x08000b34   0x08000b34   0x00000040   Code   RO         3039    i.EXTI_IRQHandler   exti.o
    0x08000b74   0x08000b74   0x00000094   Code   RO         2102    i.EnableGPIOClk     main.o
    0x08000c08   0x08000c08   0x000000a2   Code   RO          578    i.GPIO_Init         stm32f4xx_gpio.o
    0x08000caa   0x08000caa   0x00000020   Code   RO          579    i.GPIO_PinAFConfig  stm32f4xx_gpio.o
    0x08000cca   0x08000cca   0x00000012   Code   RO          587    i.GPIO_StructInit   stm32f4xx_gpio.o
    0x08000cdc   0x08000cdc   0x00000048   Code   RO         3215    i.IOConfigGPIO      io.o
    0x08000d24   0x08000d24   0x0000005c   Code   RO         3216    i.IOConfigGPIOAF    io.o
    0x08000d80   0x08000d80   0x0000006c   Code   RO         3217    i.IOGetByTag        io.o
    0x08000dec   0x08000dec   0x00000040   Code   RO         3218    i.IOGlobalInit      io.o
    0x08000e2c   0x08000e2c   0x0000000c   Code   RO         3219    i.IOHi              io.o
    0x08000e38   0x08000e38   0x00000006   Code   RO         3220    i.IOInit            io.o
    0x08000e3e   0x08000e3e   0x0000000e   Code   RO         3221    i.IOLo              io.o
    0x08000e4c   0x08000e4c   0x00000012   Code   RO         3225    i.IOWrite           io.o
    0x08000e5e   0x08000e5e   0x00000014   Code   RO         3230    i.IO_GPIOPinIdx     io.o
    0x08000e72   0x08000e72   0x00000002   PAD
    0x08000e74   0x08000e74   0x00000018   Code   RO         3231    i.IO_GPIOPortIdx    io.o
    0x08000e8c   0x08000e8c   0x00000004   Code   RO         3232    i.IO_GPIO_PinSource  io.o
    0x08000e90   0x08000e90   0x00000088   Code   RO         3355    i.LedInit           led.o
    0x08000f18   0x08000f18   0x00000028   Code   RO         3356    i.LedSet            led.o
    0x08000f40   0x08000f40   0x00000064   Code   RO           13    i.NVIC_Init         misc.o
    0x08000fa4   0x08000fa4   0x00000014   Code   RO           14    i.NVIC_PriorityGroupConfig  misc.o
    0x08000fb8   0x08000fb8   0x0000002c   Code   RO         4189    i.OLED_Clear        oled.o
    0x08000fe4   0x08000fe4   0x0000003c   Code   RO         4192    i.OLED_DrawPoint    oled.o
    0x08001020   0x08001020   0x0000004c   Code   RO         4193    i.OLED_Refresh_Gram  oled.o
    0x0800106c   0x0800106c   0x00000090   Code   RO         4194    i.OLED_ShowChar     oled.o
    0x080010fc   0x080010fc   0x00000078   Code   RO         4195    i.OLED_ShowNumber   oled.o
    0x08001174   0x08001174   0x0000003e   Code   RO         4196    i.OLED_ShowString   oled.o
    0x080011b2   0x080011b2   0x00000002   PAD
    0x080011b4   0x080011b4   0x00000074   Code   RO         4197    i.OLED_WR_Byte      oled.o
    0x08001228   0x08001228   0x00000018   Code   RO          793    i.RCC_AHB1PeriphClockCmd  stm32f4xx_rcc.o
    0x08001240   0x08001240   0x00000018   Code   RO          795    i.RCC_AHB1PeriphResetCmd  stm32f4xx_rcc.o
    0x08001258   0x08001258   0x00000018   Code   RO          796    i.RCC_AHB2PeriphClockCmd  stm32f4xx_rcc.o
    0x08001270   0x08001270   0x00000018   Code   RO          802    i.RCC_APB1PeriphClockCmd  stm32f4xx_rcc.o
    0x08001288   0x08001288   0x00000018   Code   RO          804    i.RCC_APB1PeriphResetCmd  stm32f4xx_rcc.o
    0x080012a0   0x080012a0   0x00000018   Code   RO          805    i.RCC_APB2PeriphClockCmd  stm32f4xx_rcc.o
    0x080012b8   0x080012b8   0x00000018   Code   RO          807    i.RCC_APB2PeriphResetCmd  stm32f4xx_rcc.o
    0x080012d0   0x080012d0   0x00000010   Code   RO          810    i.RCC_ClearFlag     stm32f4xx_rcc.o
    0x080012e0   0x080012e0   0x00000024   Code   RO         3492    i.RCC_ClockCmd      rcc.o
    0x08001304   0x08001304   0x00000090   Code   RO          814    i.RCC_GetClocksFreq  stm32f4xx_rcc.o
    0x08001394   0x08001394   0x00000024   Code   RO         3493    i.RCC_ResetCmd      rcc.o
    0x080013b8   0x080013b8   0x00000034   Code   RO         4638    i.Read_Encoder      fc_tasks.o
    0x080013ec   0x080013ec   0x0000000c   Code   RO         4469    i.ResetBeeperConfig  config.o
    0x080013f8   0x080013f8   0x00000020   Code   RO         4470    i.ResetLedStatusConfig  config.o
    0x08001418   0x08001418   0x00000008   Code   RO         5114    i.ResetRollAndPitchTrims  acceleration.o
    0x08001420   0x08001420   0x0000003c   Code   RO         4471    i.ResetSerialConfig  config.o
    0x0800145c   0x0800145c   0x00000064   Code   RO         4472    i.ResetSerialPinConfig  config.o
    0x080014c0   0x080014c0   0x00000014   Code   RO         1137    i.SPI_Cmd           stm32f4xx_spi.o
    0x080014d4   0x080014d4   0x00000084   Code   RO         1144    i.SPI_I2S_DeInit    stm32f4xx_spi.o
    0x08001558   0x08001558   0x00000038   Code   RO         1150    i.SPI_Init          stm32f4xx_spi.o
    0x08001590   0x08001590   0x000000b4   Code   RO         2384    i.SetSysClock       system_stm32f4xx.o
    0x08001644   0x08001644   0x00000024   Code   RO         2455    i.SysTick_Handler   system.o
    0x08001668   0x08001668   0x00000024   Code   RO         2456    i.SysTick_Init      system.o
    0x0800168c   0x0800168c   0x0000005c   Code   RO         2386    i.SystemInit        system_stm32f4xx.o
    0x080016e8   0x080016e8   0x0000002e   Code   RO         1359    i.TI1_Config        stm32f4xx_tim.o
    0x08001716   0x08001716   0x00000036   Code   RO         1360    i.TI2_Config        stm32f4xx_tim.o
    0x0800174c   0x0800174c   0x00000010   Code   RO         3982    i.TIM1_CC_IRQHandler  timer.o
    0x0800175c   0x0800175c   0x00000010   Code   RO         3983    i.TIM2_IRQHandler   timer.o
    0x0800176c   0x0800176c   0x00000010   Code   RO         3984    i.TIM3_IRQHandler   timer.o
    0x0800177c   0x0800177c   0x00000010   Code   RO         3985    i.TIM4_IRQHandler   timer.o
    0x0800178c   0x0800178c   0x00000010   Code   RO         3986    i.TIM5_IRQHandler   timer.o
    0x0800179c   0x0800179c   0x00000014   Code   RO         1373    i.TIM_Cmd           stm32f4xx_tim.o
    0x080017b0   0x080017b0   0x00000016   Code   RO         1375    i.TIM_CtrlPWMOutputs  stm32f4xx_tim.o
    0x080017c6   0x080017c6   0x000000ac   Code   RO         1396    i.TIM_ICInit        stm32f4xx_tim.o
    0x08001872   0x08001872   0x00000010   Code   RO         1397    i.TIM_ICStructInit  stm32f4xx_tim.o
    0x08001882   0x08001882   0x00000002   PAD
    0x08001884   0x08001884   0x00000060   Code   RO         1402    i.TIM_OC1Init       stm32f4xx_tim.o
    0x080018e4   0x080018e4   0x0000000c   Code   RO         1405    i.TIM_OC1PreloadConfig  stm32f4xx_tim.o
    0x080018f0   0x080018f0   0x00000080   Code   RO         1407    i.TIM_OC2Init       stm32f4xx_tim.o
    0x08001970   0x08001970   0x00000014   Code   RO         1410    i.TIM_OC2PreloadConfig  stm32f4xx_tim.o
    0x08001984   0x08001984   0x0000007c   Code   RO         1412    i.TIM_OC3Init       stm32f4xx_tim.o
    0x08001a00   0x08001a00   0x0000000c   Code   RO         1415    i.TIM_OC3PreloadConfig  stm32f4xx_tim.o
    0x08001a0c   0x08001a0c   0x00000060   Code   RO         1417    i.TIM_OC4Init       stm32f4xx_tim.o
    0x08001a6c   0x08001a6c   0x00000014   Code   RO         1419    i.TIM_OC4PreloadConfig  stm32f4xx_tim.o
    0x08001a80   0x08001a80   0x00000014   Code   RO         1420    i.TIM_OCStructInit  stm32f4xx_tim.o
    0x08001a94   0x08001a94   0x00000010   Code   RO         1432    i.TIM_SelectSlaveMode  stm32f4xx_tim.o
    0x08001aa4   0x08001aa4   0x00000010   Code   RO         1440    i.TIM_SetIC1Prescaler  stm32f4xx_tim.o
    0x08001ab4   0x08001ab4   0x00000018   Code   RO         1441    i.TIM_SetIC2Prescaler  stm32f4xx_tim.o
    0x08001acc   0x08001acc   0x00000010   Code   RO         1442    i.TIM_SetIC3Prescaler  stm32f4xx_tim.o
    0x08001adc   0x08001adc   0x00000018   Code   RO         1443    i.TIM_SetIC4Prescaler  stm32f4xx_tim.o
    0x08001af4   0x08001af4   0x0000007c   Code   RO         1445    i.TIM_TimeBaseInit  stm32f4xx_tim.o
    0x08001b70   0x08001b70   0x00000012   Code   RO         1446    i.TIM_TimeBaseStructInit  stm32f4xx_tim.o
    0x08001b82   0x08001b82   0x00000002   PAD
    0x08001b84   0x08001b84   0x00000010   Code   RO         3865    i.USART1_IRQHandler  serial_uart_stm32f4xx.o
    0x08001b94   0x08001b94   0x00000010   Code   RO         3866    i.USART3_IRQHandler  serial_uart_stm32f4xx.o
    0x08001ba4   0x08001ba4   0x00000010   Code   RO         3867    i.USART6_IRQHandler  serial_uart_stm32f4xx.o
    0x08001bb4   0x08001bb4   0x0000000c   Code   RO         1911    i.USART_ClearITPendingBit  stm32f4xx_usart.o
    0x08001bc0   0x08001bc0   0x00000014   Code   RO         1914    i.USART_Cmd         stm32f4xx_usart.o
    0x08001bd4   0x08001bd4   0x00000010   Code   RO         1915    i.USART_DMACmd      stm32f4xx_usart.o
    0x08001be4   0x08001be4   0x0000003e   Code   RO         1918    i.USART_GetITStatus  stm32f4xx_usart.o
    0x08001c22   0x08001c22   0x00000014   Code   RO         1919    i.USART_HalfDuplexCmd  stm32f4xx_usart.o
    0x08001c36   0x08001c36   0x00000030   Code   RO         1920    i.USART_ITConfig    stm32f4xx_usart.o
    0x08001c66   0x08001c66   0x00000002   PAD
    0x08001c68   0x08001c68   0x000000ac   Code   RO         1921    i.USART_Init        stm32f4xx_usart.o
    0x08001d14   0x08001d14   0x00000008   Code   RO         1931    i.USART_SendData    stm32f4xx_usart.o
    0x08001d1c   0x08001d1c   0x00000026   Code   RO         6084    i.__ARM_fpclassifyf  m_wm.l(fpclassifyf.o)
    0x08001d42   0x08001d42   0x00000002   PAD
    0x08001d44   0x08001d44   0x00000118   Code   RO         5949    i.__hardfp_acosf    m_wm.l(acosf.o)
    0x08001e5c   0x08001e5c   0x00000250   Code   RO         5961    i.__hardfp_atan2f   m_wm.l(atan2f.o)
    0x080020ac   0x080020ac   0x00000150   Code   RO         5973    i.__hardfp_cosf     m_wm.l(cosf.o)
    0x080021fc   0x080021fc   0x00000048   Code   RO         6041    i.__hardfp_lrintf   m_wm.l(lrintf.o)
    0x08002244   0x08002244   0x00000004   PAD
    0x08002248   0x08002248   0x000000e0   Code   RO         6013    i.__hardfp_round    m_wm.l(round.o)
    0x08002328   0x08002328   0x00000190   Code   RO         6017    i.__hardfp_sinf     m_wm.l(sinf.o)
    0x080024b8   0x080024b8   0x0000003a   Code   RO         6029    i.__hardfp_sqrtf    m_wm.l(sqrtf.o)
    0x080024f2   0x080024f2   0x00000006   Code   RO         6087    i.__mathlib_flt_infnan  m_wm.l(funder.o)
    0x080024f8   0x080024f8   0x00000006   Code   RO         6088    i.__mathlib_flt_infnan2  m_wm.l(funder.o)
    0x080024fe   0x080024fe   0x00000002   PAD
    0x08002500   0x08002500   0x00000010   Code   RO         6089    i.__mathlib_flt_invalid  m_wm.l(funder.o)
    0x08002510   0x08002510   0x00000010   Code   RO         6092    i.__mathlib_flt_underflow  m_wm.l(funder.o)
    0x08002520   0x08002520   0x00000154   Code   RO         6100    i.__mathlib_rredf2  m_wm.l(rredf.o)
    0x08002674   0x08002674   0x0000000c   Code   RO         5117    i.accSetCalibrationCycles  acceleration.o
    0x08002680   0x08002680   0x000000a8   Code   RO         5118    i.accUpdate         acceleration.o
    0x08002728   0x08002728   0x00000030   Code   RO         4473    i.activateConfig    config.o
    0x08002758   0x08002758   0x0000009c   Code   RO         5329    i.alignBoard        boardalignment.o
    0x080027f4   0x080027f4   0x0000006c   Code   RO         5330    i.alignSensors      boardalignment.o
    0x08002860   0x08002860   0x00000040   Code   RO         3941    i.beeperInit        sound_beeper.o
    0x080028a0   0x080028a0   0x00000042   Code   RO         5472    i.biquadFilterApply  filter.o
    0x080028e2   0x080028e2   0x00000002   PAD
    0x080028e4   0x080028e4   0x000000f0   Code   RO         5473    i.biquadFilterInit  filter.o
    0x080029d4   0x080029d4   0x00000034   Code   RO         5474    i.biquadFilterInitLPF  filter.o
    0x08002a08   0x08002a08   0x0000002c   Code   RO         4287    i.bluetoothSerial6Init  bluetoothserial6.o
    0x08002a34   0x08002a34   0x00000018   Code   RO         4893    i.calculateAccZLowPassFilterRCTimeConstant  imu.o
    0x08002a4c   0x08002a4c   0x00000024   Code   RO         4894    i.calculateThrottleAngleScale  imu.o
    0x08002a70   0x08002a70   0x00000004   Code   RO         4478    i.checkEEPROMContainsValidData  config.o
    0x08002a74   0x08002a74   0x0000002c   Code   RO         3987    i.configTimeBase4Encoder  timer.o
    0x08002aa0   0x08002aa0   0x00000010   Code   RO         4479    i.constrain         config.o
    0x08002ab0   0x08002ab0   0x00000010   Code   RO         5535    i.cosApprox         maths.o
    0x08002ac0   0x08002ac0   0x000001ec   Code   RO         4480    i.createDefaultConfig  config.o
    0x08002cac   0x08002cac   0x00000158   Code   RO         3424    i.dcBrushedMotorInit  pwm_output.o
    0x08002e04   0x08002e04   0x00000018   Code   RO         5536    i.degreesToRadians  maths.o
    0x08002e1c   0x08002e1c   0x00000016   Code   RO         2457    i.delay             system.o
    0x08002e32   0x08002e32   0x00000002   PAD
    0x08002e34   0x08002e34   0x00000018   Code   RO         2458    i.delayMicroseconds  system.o
    0x08002e4c   0x08002e4c   0x00000006   Code   RO         5537    i.devClear          maths.o
    0x08002e52   0x08002e52   0x00000002   PAD
    0x08002e54   0x08002e54   0x00000058   Code   RO         5538    i.devPush           maths.o
    0x08002eac   0x08002eac   0x0000000e   Code   RO         5539    i.devStandardDeviation  maths.o
    0x08002eba   0x08002eba   0x00000002   PAD
    0x08002ebc   0x08002ebc   0x00000024   Code   RO         5540    i.devVariance       maths.o
    0x08002ee0   0x08002ee0   0x00000012   Code   RO         4641    i.fcTasksInit       fc_tasks.o
    0x08002ef2   0x08002ef2   0x00000002   PAD
    0x08002ef4   0x08002ef4   0x00000010   Code   RO         5034    i.featureClear      feature.o
    0x08002f04   0x08002f04   0x00000014   Code   RO         5036    i.featureConfigured  feature.o
    0x08002f18   0x08002f18   0x00000010   Code   RO         5038    i.featureSet        feature.o
    0x08002f28   0x08002f28   0x00000028   Code   RO         3690    i.findNextSerialPortConfig  serial.o
    0x08002f50   0x08002f50   0x00000010   Code   RO         3691    i.findSerialPortConfig  serial.o
    0x08002f60   0x08002f60   0x0000001c   Code   RO         3692    i.findSerialPortIndexByIdentifier  serial.o
    0x08002f7c   0x08002f7c   0x00000028   Code   RO         3693    i.findSerialPortUsageByIdentifier  serial.o
    0x08002fa4   0x08002fa4   0x0000000e   Code   RO         2103    i.fputc             main.o
    0x08002fb2   0x08002fb2   0x00000002   PAD
    0x08002fb4   0x08002fb4   0x00000024   Code   RO         5205    i.gyroCalculateCalibratingCycles  gyro.o
    0x08002fd8   0x08002fd8   0x00000010   Code   RO         5208    i.gyroSetCalibrationCycles  gyro.o
    0x08002fe8   0x08002fe8   0x00000154   Code   RO         5209    i.gyroUpdate        gyro.o
    0x0800313c   0x0800313c   0x00000010   Code   RO         4338    i.hcsr04_ultrasound1_get_distance  ultrasound_hcsr04.o
    0x0800314c   0x0800314c   0x00000030   Code   RO         4339    i.hcsr04_ultrasound1_start_sequence  ultrasound_hcsr04.o
    0x0800317c   0x0800317c   0x00000010   Code   RO         4340    i.hcsr04_ultrasound2_get_distance  ultrasound_hcsr04.o
    0x0800318c   0x0800318c   0x00000030   Code   RO         4341    i.hcsr04_ultrasound2_start_sequence  ultrasound_hcsr04.o
    0x080031bc   0x080031bc   0x00000010   Code   RO         4342    i.hcsr04_ultrasound3_get_distance  ultrasound_hcsr04.o
    0x080031cc   0x080031cc   0x00000034   Code   RO         4343    i.hcsr04_ultrasound3_start_sequence  ultrasound_hcsr04.o
    0x08003200   0x08003200   0x00000010   Code   RO         4344    i.hcsr04_ultrasound4_get_distance  ultrasound_hcsr04.o
    0x08003210   0x08003210   0x00000034   Code   RO         4345    i.hcsr04_ultrasound4_start_sequence  ultrasound_hcsr04.o
    0x08003244   0x08003244   0x00000010   Code   RO         4346    i.hcsr04_ultrasound5_get_distance  ultrasound_hcsr04.o
    0x08003254   0x08003254   0x00000034   Code   RO         4347    i.hcsr04_ultrasound5_start_sequence  ultrasound_hcsr04.o
    0x08003288   0x08003288   0x00000010   Code   RO         4348    i.hcsr04_ultrasound6_get_distance  ultrasound_hcsr04.o
    0x08003298   0x08003298   0x00000034   Code   RO         4349    i.hcsr04_ultrasound6_start_sequence  ultrasound_hcsr04.o
    0x080032cc   0x080032cc   0x000000d8   Code   RO         4895    i.imuCalculateEstimatedAttitude  imu.o
    0x080033a4   0x080033a4   0x000000bc   Code   RO         4896    i.imuComputeRotationMatrix  imu.o
    0x08003460   0x08003460   0x0000005c   Code   RO         4897    i.imuConfigure      imu.o
    0x080034bc   0x080034bc   0x00000050   Code   RO         4898    i.imuInit           imu.o
    0x0800350c   0x0800350c   0x000002b4   Code   RO         4899    i.imuMahonyAHRSUpdate  imu.o
    0x080037c0   0x080037c0   0x000000a0   Code   RO         4900    i.imuUpdateEulerAngles  imu.o
    0x08003860   0x08003860   0x00000002   Code   RO         4977    i.initEEPROM        config_eeprom.o
    0x08003862   0x08003862   0x00000006   Code   RO         5040    i.intFeatureClearAll  feature.o
    0x08003868   0x08003868   0x00000008   Code   RO         5041    i.intFeatureSet     feature.o
    0x08003870   0x08003870   0x00000014   Code   RO         4901    i.invSqrt           imu.o
    0x08003884   0x08003884   0x00000014   Code   RO         5119    i.isAccelerationCalibrationComplete  acceleration.o
    0x08003898   0x08003898   0x00000014   Code   RO         5210    i.isGyroCalibrationComplete  gyro.o
    0x080038ac   0x080038ac   0x00000010   Code   RO         5211    i.isOnFinalGyroCalibrationCycle  gyro.o
    0x080038bc   0x080038bc   0x0000001a   Code   RO         3779    i.isUartTransmitBufferEmpty  serial_uart.o
    0x080038d6   0x080038d6   0x00000002   PAD
    0x080038d8   0x080038d8   0x00000014   Code   RO         5042    i.latchActiveFeatures  feature.o
    0x080038ec   0x080038ec   0x0000002a   Code   RO         4644    i.limitMotorPwm     fc_tasks.o
    0x08003916   0x08003916   0x00000002   PAD
    0x08003918   0x08003918   0x000000d0   Code   RO         2104    i.main              main.o
    0x080039e8   0x080039e8   0x00000054   Code   RO         2459    i.micros            system.o
    0x08003a3c   0x08003a3c   0x0000004c   Code   RO         2460    i.microsISR         system.o
    0x08003a88   0x08003a88   0x0000000c   Code   RO         2461    i.millis            system.o
    0x08003a94   0x08003a94   0x00000024   Code   RO         2830    i.modeSwitchBtnPollInit  button.o
    0x08003ab8   0x08003ab8   0x0000018c   Code   RO         4198    i.oledInit          oled.o
    0x08003c44   0x08003c44   0x00000016   Code   RO         4199    i.oled_pow          oled.o
    0x08003c5a   0x08003c5a   0x00000002   PAD
    0x08003c5c   0x08003c5c   0x0000006c   Code   RO         3695    i.openSerialPort    serial.o
    0x08003cc8   0x08003cc8   0x00000088   Code   RO         5120    i.performAccelerationCalibration  acceleration.o
    0x08003d50   0x08003d50   0x000000d4   Code   RO         5212    i.performGyroCalibration  gyro.o
    0x08003e24   0x08003e24   0x0000004c   Code   RO         3524    i.pwmEncoderICConfig  rx_pwm.o
    0x08003e70   0x08003e70   0x0000006c   Code   RO         3525    i.pwmEncoderInit    rx_pwm.o
    0x08003edc   0x08003edc   0x00000014   Code   RO         3425    i.pwmWriteDcBrushedMotor  pwm_output.o
    0x08003ef0   0x08003ef0   0x00000060   Code   RO         5776    i.queueAdd          scheduler.o
    0x08003f50   0x08003f50   0x0000001c   Code   RO         5777    i.queueClear        scheduler.o
    0x08003f6c   0x08003f6c   0x0000002c   Code   RO         5778    i.queueContains     scheduler.o
    0x08003f98   0x08003f98   0x00000014   Code   RO         5779    i.queueFirst        scheduler.o
    0x08003fac   0x08003fac   0x00000018   Code   RO         5780    i.queueNext         scheduler.o
    0x08003fc4   0x08003fc4   0x00000040   Code   RO         5781    i.queueRemove       scheduler.o
    0x08004004   0x08004004   0x0000001c   Code   RO         4979    i.readEEPROM        config_eeprom.o
    0x08004020   0x08004020   0x00000018   Code   RO         4483    i.resetEEPROM       config.o
    0x08004038   0x08004038   0x0000002c   Code   RO         3637    i.rxSerial3TestInit  rxserial3test.o
    0x08004064   0x08004064   0x00000010   Code   RO         3639    i.rxSerial3TestWrite  rxserial3test.o
    0x08004074   0x08004074   0x00000170   Code   RO         5783    i.scheduler         scheduler.o
    0x080041e4   0x080041e4   0x00000020   Code   RO         5784    i.schedulerInit     scheduler.o
    0x08004204   0x08004204   0x00000014   Code   RO         4796    i.sensors           runtime_config.o
    0x08004218   0x08004218   0x00000034   Code   RO         3696    i.serialInit        serial.o
    0x0800424c   0x0800424c   0x00000110   Code   RO         3868    i.serialUART        serial_uart_stm32f4xx.o
    0x0800435c   0x0800435c   0x0000000c   Code   RO         3869    i.serialUART1       serial_uart_stm32f4xx.o
    0x08004368   0x08004368   0x0000000c   Code   RO         3870    i.serialUART3       serial_uart_stm32f4xx.o
    0x08004374   0x08004374   0x0000000c   Code   RO         3871    i.serialUART6       serial_uart_stm32f4xx.o
    0x08004380   0x08004380   0x00000006   Code   RO         3699    i.serialWrite       serial.o
    0x08004386   0x08004386   0x00000002   PAD
    0x08004388   0x08004388   0x00000044   Code   RO         5121    i.setAccelerationFilter  acceleration.o
    0x080043cc   0x080043cc   0x0000000c   Code   RO         5122    i.setAccelerationTrims  acceleration.o
    0x080043d8   0x080043d8   0x00000034   Code   RO         4486    i.setProfile        config.o
    0x0800440c   0x0800440c   0x00000034   Code   RO         5785    i.setTaskEnabled    scheduler.o
    0x08004440   0x08004440   0x000000b4   Code   RO         5543    i.sinApprox         maths.o
    0x080044f4   0x080044f4   0x0000001a   Code   RO         2746    i.spiInit           bus_spi.o
    0x0800450e   0x0800450e   0x00000002   PAD
    0x08004510   0x08004510   0x00000118   Code   RO         2747    i.spiInitDevice     bus_spi.o
    0x08004628   0x08004628   0x0000003e   Code   RO         6031    i.sqrtf             m_wm.l(sqrtf.o)
    0x08004666   0x08004666   0x00000002   PAD
    0x08004668   0x08004668   0x00000018   Code   RO         3942    i.systemBeep        sound_beeper.o
    0x08004680   0x08004680   0x00000050   Code   RO         2106    i.systemInit        main.o
    0x080046d0   0x080046d0   0x0000013a   Code   RO         4487    i.targetConfiguration  config.o
    0x0800480a   0x0800480a   0x00000002   PAD
    0x0800480c   0x0800480c   0x0000002c   Code   RO         4902    i.taskIMUUpdateAttitude  imu.o
    0x08004838   0x08004838   0x00000058   Code   RO         4645    i.taskMotorEncoder  fc_tasks.o
    0x08004890   0x08004890   0x00000250   Code   RO         4646    i.taskOLEDDisplay   fc_tasks.o
    0x08004ae0   0x08004ae0   0x00000020   Code   RO         5786    i.taskSystem        scheduler.o
    0x08004b00   0x08004b00   0x00000010   Code   RO         4647    i.taskUltrasound1ReadData  fc_tasks.o
    0x08004b10   0x08004b10   0x00000010   Code   RO         4648    i.taskUltrasound2ReadData  fc_tasks.o
    0x08004b20   0x08004b20   0x00000010   Code   RO         4649    i.taskUltrasound3ReadData  fc_tasks.o
    0x08004b30   0x08004b30   0x00000010   Code   RO         4650    i.taskUltrasound4ReadData  fc_tasks.o
    0x08004b40   0x08004b40   0x00000010   Code   RO         4651    i.taskUltrasound5ReadData  fc_tasks.o
    0x08004b50   0x08004b50   0x00000010   Code   RO         4652    i.taskUltrasound6ReadData  fc_tasks.o
    0x08004b60   0x08004b60   0x0000000c   Code   RO         4653    i.taskUpdateAccelerometer  fc_tasks.o
    0x08004b6c   0x08004b6c   0x00000004   Code   RO         4654    i.taskUpdateGyro    fc_tasks.o
    0x08004b70   0x08004b70   0x0000007a   Code   RO         3993    i.timCCxHandler     timer.o
    0x08004bea   0x08004bea   0x0000000a   Code   RO         3995    i.timerChCCR        timer.o
    0x08004bf4   0x08004bf4   0x0000003c   Code   RO         4001    i.timerGetByTag     timer.o
    0x08004c30   0x08004c30   0x00000084   Code   RO         4002    i.timerInit         timer.o
    0x08004cb4   0x08004cb4   0x00000028   Code   RO         4005    i.timerOCInit       timer.o
    0x08004cdc   0x08004cdc   0x00000028   Code   RO         4006    i.timerOCPreloadConfig  timer.o
    0x08004d04   0x08004d04   0x00000024   Code   RO         4007    i.timerRCC          timer.o
    0x08004d28   0x08004d28   0x000000dc   Code   RO         3872    i.uartIrqHandler    serial_uart_stm32f4xx.o
    0x08004e04   0x08004e04   0x00000174   Code   RO         3780    i.uartOpen          serial_uart.o
    0x08004f78   0x08004f78   0x0000002c   Code   RO         3781    i.uartRead          serial_uart.o
    0x08004fa4   0x08004fa4   0x0000008c   Code   RO         3782    i.uartReconfigure   serial_uart.o
    0x08005030   0x08005030   0x00000006   Code   RO         3783    i.uartSetBaudRate   serial_uart.o
    0x08005036   0x08005036   0x00000006   Code   RO         3784    i.uartSetMode       serial_uart.o
    0x0800503c   0x0800503c   0x0000004a   Code   RO         3785    i.uartStartTxDMA    serial_uart.o
    0x08005086   0x08005086   0x00000018   Code   RO         3786    i.uartTotalRxBytesWaiting  serial_uart.o
    0x0800509e   0x0800509e   0x00000026   Code   RO         3787    i.uartTotalTxBytesFree  serial_uart.o
    0x080050c4   0x080050c4   0x00000030   Code   RO         3788    i.uartWrite         serial_uart.o
    0x080050f4   0x080050f4   0x00000012   Code   RO         5376    i.ultrasound1Read   ultrasound.o
    0x08005106   0x08005106   0x00000004   Code   RO         5377    i.ultrasound1Update  ultrasound.o
    0x0800510a   0x0800510a   0x00000012   Code   RO         5378    i.ultrasound2Read   ultrasound.o
    0x0800511c   0x0800511c   0x00000004   Code   RO         5379    i.ultrasound2Update  ultrasound.o
    0x08005120   0x08005120   0x00000012   Code   RO         5380    i.ultrasound3Read   ultrasound.o
    0x08005132   0x08005132   0x00000004   Code   RO         5381    i.ultrasound3Update  ultrasound.o
    0x08005136   0x08005136   0x00000012   Code   RO         5382    i.ultrasound4Read   ultrasound.o
    0x08005148   0x08005148   0x00000004   Code   RO         5383    i.ultrasound4Update  ultrasound.o
    0x0800514c   0x0800514c   0x00000012   Code   RO         5384    i.ultrasound5Read   ultrasound.o
    0x0800515e   0x0800515e   0x00000004   Code   RO         5385    i.ultrasound5Update  ultrasound.o
    0x08005162   0x08005162   0x00000012   Code   RO         5386    i.ultrasound6Read   ultrasound.o
    0x08005174   0x08005174   0x00000004   Code   RO         5387    i.ultrasound6Update  ultrasound.o
    0x08005178   0x08005178   0x00000090   Code   RO         4655    i.updateMotorPwm    fc_tasks.o
    0x08005208   0x08005208   0x00000054   Code   RO         4488    i.validateAndFixConfig  config.o
    0x0800525c   0x0800525c   0x000000c8   Code   RO         4489    i.validateAndFixGyroConfig  config.o
    0x08005324   0x08005324   0x00000062   Code   RO         5923    x$fpl$d2f           fz_wm.l(d2f.o)
    0x08005386   0x08005386   0x00000002   PAD
    0x08005388   0x08005388   0x00000150   Code   RO         5925    x$fpl$dadd          fz_wm.l(daddsub_clz.o)
    0x080054d8   0x080054d8   0x00000018   Code   RO         6131    x$fpl$dcmpinf       fz_wm.l(dcmpi.o)
    0x080054f0   0x080054f0   0x000002b0   Code   RO         5932    x$fpl$ddiv          fz_wm.l(ddiv.o)
    0x080057a0   0x080057a0   0x0000005e   Code   RO         5935    x$fpl$dfix          fz_wm.l(dfix.o)
    0x080057fe   0x080057fe   0x0000002e   Code   RO         5940    x$fpl$dflt          fz_wm.l(dflt_clz.o)
    0x0800582c   0x0800582c   0x00000078   Code   RO         6061    x$fpl$dleqf         fz_wm.l(dleqf.o)
    0x080058a4   0x080058a4   0x00000154   Code   RO         5945    x$fpl$dmul          fz_wm.l(dmul.o)
    0x080059f8   0x080059f8   0x0000009c   Code   RO         6063    x$fpl$dnaninf       fz_wm.l(dnaninf.o)
    0x08005a94   0x08005a94   0x0000000c   Code   RO         6065    x$fpl$dretinf       fz_wm.l(dretinf.o)
    0x08005aa0   0x08005aa0   0x0000006c   Code   RO         6067    x$fpl$drleqf        fz_wm.l(drleqf.o)
    0x08005b0c   0x08005b0c   0x000000b4   Code   RO         6069    x$fpl$drnd          fz_wm.l(drnd.o)
    0x08005bc0   0x08005bc0   0x000001d4   Code   RO         5927    x$fpl$dsub          fz_wm.l(daddsub_clz.o)
    0x08005d94   0x08005d94   0x00000056   Code   RO         5947    x$fpl$f2d           fz_wm.l(f2d.o)
    0x08005dea   0x08005dea   0x0000000e   Code   RO         6072    x$fpl$ffixr         fz_wm.l(ffix.o)
    0x08005df8   0x08005df8   0x0000008c   Code   RO         6075    x$fpl$fnaninf       fz_wm.l(fnaninf.o)
    0x08005e84   0x08005e84   0x0000000a   Code   RO         6214    x$fpl$fpinit        fz_wm.l(fpinit.o)
    0x08005e8e   0x08005e8e   0x0000000a   Code   RO         6077    x$fpl$fretinf       fz_wm.l(fretinf.o)
    0x08005e98   0x08005e98   0x00000060   Code   RO         6079    x$fpl$frnd          fz_wm.l(frnd.o)
    0x08005ef8   0x08005ef8   0x00000000   Code   RO         6083    x$fpl$usenofp       fz_wm.l(usenofp.o)
    0x08005ef8   0x08005ef8   0x000000a8   Data   RO         2427    .constdata          target.o
    0x08005fa0   0x08005fa0   0x0000001a   Data   RO         2754    .constdata          bus_spi.o
    0x08005fba   0x08005fba   0x00000016   Data   RO         3236    .constdata          io.o
    0x08005fd0   0x08005fd0   0x00000003   Data   RO         3701    .constdata          serial.o
    0x08005fd3   0x08005fd3   0x00000001   PAD
    0x08005fd4   0x08005fd4   0x00000028   Data   RO         3789    .constdata          serial_uart.o
    0x08005ffc   0x08005ffc   0x00000070   Data   RO         4159    .constdata          timer_stm32f4xx.o
    0x0800606c   0x0800606c   0x00000a64   Data   RO         4201    .constdata          oled.o
    0x08006ad0   0x08006ad0   0x00000020   Data   RO         6101    .constdata          m_wm.l(rredf.o)
    0x08006af0   0x08006af0   0x00000149   Data   RO         4656    .conststring        fc_tasks.o
    0x08006c39   0x08006c39   0x00000003   PAD
    0x08006c3c   0x08006c3c   0x00000020   Data   RO         6282    Region$$Table       anon$$obj.o


    Execution Region RW_IRAM1 (Exec base: 0x20000000, Load base: 0x08006c5c, Size: 0x00002c38, Max: 0x00020000, ABSOLUTE, COMPRESSED[0x000001c4])

    Exec Addr    Load Addr    Size         Type   Attr      Idx    E Section Name        Object

    0x20000000   COMPRESSED   0x00000010   Data   RW          846    .data               stm32f4xx_rcc.o
    0x20000010   COMPRESSED   0x00000001   Data   RW         2107    .data               main.o
    0x20000011   COMPRESSED   0x00000003   PAD
    0x20000014   COMPRESSED   0x00000004   Data   RW         2108    .data               main.o
    0x20000018   COMPRESSED   0x00000014   Data   RW         2388    .data               system_stm32f4xx.o
    0x2000002c   COMPRESSED   0x0000000c   Data   RW         2463    .data               system.o
    0x20000038   COMPRESSED   0x00000010   Data   RW         2755    .data               bus_spi.o
    0x20000048   COMPRESSED   0x0000000c   Data   RW         2835    .data               button.o
    0x20000054   COMPRESSED   0x000001c0   Data   RW         2907    .data               dma_stm32f4xx.o
    0x20000214   COMPRESSED   0x00000007   Data   RW         3042    .data               exti.o
    0x2000021b   COMPRESSED   0x00000001   Data   RW         3363    .data               led.o
    0x2000021c   COMPRESSED   0x00000010   Data   RW         3428    .data               pwm_output.o
    0x2000022c   COMPRESSED   0x0000000c   Data   RW         3533    .data               rx_pwm.o
    0x20000238   COMPRESSED   0x00000004   Data   RW         3640    .data               rxserial3test.o
    0x2000023c   COMPRESSED   0x00000008   Data   RW         3703    .data               serial.o
    0x20000244   COMPRESSED   0x0000047c   Data   RW         3873    .data               serial_uart_stm32f4xx.o
    0x200006c0   COMPRESSED   0x0000047c   Data   RW         3874    .data               serial_uart_stm32f4xx.o
    0x20000b3c   COMPRESSED   0x0000047c   Data   RW         3875    .data               serial_uart_stm32f4xx.o
    0x20000fb8   COMPRESSED   0x0000001c   Data   RW         3876    .data               serial_uart_stm32f4xx.o
    0x20000fd4   COMPRESSED   0x00000008   Data   RW         3944    .data               sound_beeper.o
    0x20000fdc   COMPRESSED   0x00000010   Data   RW         4202    .data               oled.o
    0x20000fec   COMPRESSED   0x00000004   Data   RW         4291    .data               bluetoothserial6.o
    0x20000ff0   COMPRESSED   0x00000090   Data   RW         4350    .data               ultrasound_hcsr04.o
    0x20001080   COMPRESSED   0x0000000c   Data   RW         4491    .data               config.o
    0x2000108c   COMPRESSED   0x00000048   Data   RW         4660    .data               fc_tasks.o
    0x200010d4   COMPRESSED   0x00000444   Data   RW         4662    .data               fc_tasks.o
    0x20001518   COMPRESSED   0x00000001   Data   RW         4798    .data               runtime_config.o
    0x20001519   COMPRESSED   0x00000003   PAD
    0x2000151c   COMPRESSED   0x00000008   Data   RW         4799    .data               runtime_config.o
    0x20001524   COMPRESSED   0x00000001   Data   RW         4800    .data               runtime_config.o
    0x20001525   COMPRESSED   0x00000003   PAD
    0x20001528   COMPRESSED   0x0000003e   Data   RW         4904    .data               imu.o
    0x20001566   COMPRESSED   0x00000002   PAD
    0x20001568   COMPRESSED   0x00000004   Data   RW         5043    .data               feature.o
    0x2000156c   COMPRESSED   0x00000008   Data   RW         5124    .data               acceleration.o
    0x20001574   COMPRESSED   0x00000018   Data   RW         5215    .data               gyro.o
    0x2000158c   COMPRESSED   0x00000001   Data   RW         5333    .data               boardalignment.o
    0x2000158d   COMPRESSED   0x00000003   PAD
    0x20001590   COMPRESSED   0x00000024   Data   RW         5788    .data               scheduler.o
    0x200015b4        -       0x00000010   Zero   RW         2462    .bss                system.o
    0x200015c4        -       0x00000040   Zero   RW         3040    .bss                exti.o
    0x20001604        -       0x00000280   Zero   RW         3235    .bss                io.o
    0x20001884        -       0x00000010   Zero   RW         3362    .bss                led.o
    0x20001894        -       0x00000028   Zero   RW         3426    .bss                pwm_output.o
    0x200018bc        -       0x00000024   Zero   RW         3700    .bss                serial.o
    0x200018e0        -       0x000001d1   Zero   RW         4008    .bss                timer.o
    0x20001ab1        -       0x00000400   Zero   RW         4200    .bss                oled.o
    0x20001eb1   COMPRESSED   0x00000003   PAD
    0x20001eb4        -       0x000003b4   Zero   RW         4490    .bss                config.o
    0x20002268        -       0x00000030   Zero   RW         4903    .bss                imu.o
    0x20002298        -       0x000000a0   Zero   RW         5123    .bss                acceleration.o
    0x20002338        -       0x00000208   Zero   RW         5213    .bss                gyro.o
    0x20002540        -       0x00000024   Zero   RW         5332    .bss                boardalignment.o
    0x20002564        -       0x0000001c   Zero   RW         5358    .bss                compass.o
    0x20002580        -       0x00000058   Zero   RW         5787    .bss                scheduler.o
    0x200025d8        -       0x00000060   Zero   RW         6134    .bss                c_w.l(libspace.o)
    0x20002638        -       0x00000200   Zero   RW            2    HEAP                startup_stm32f407xx.o
    0x20002838        -       0x00000400   Zero   RW            1    STACK               startup_stm32f407xx.o


==============================================================================

Image component sizes


      Code (inc. data)   RO Data    RW Data    ZI Data      Debug   Object Name

       424         48          0          8        160       8052   acceleration.o
         0          0          0          0          0       3112   accgyro_mpu.o
         0          0          0          0          0       1672   accgyro_spi_mpu9250.o
        44          4          0          4          0       1171   bluetoothserial6.o
       264         18          0          1         36       3195   boardalignment.o
       306         24         26         16          0       3178   bus_spi.o
        36          4          0         12          0       2859   button.o
         0          0          0          0         28       1138   compass.o
      1438         86          0         12        948      15027   config.o
        30          4          0          0          0        982   config_eeprom.o
       340         84          0        448          0       9908   dma_stm32f4xx.o
       132         16          0          7         64       5471   exti.o
      1048        160        329       1164          0      14403   fc_tasks.o
        86         26          0          4          0       3853   feature.o
       358         14          0          0          0       3857   filter.o
         0          0          0          0          0       3262   gps.o
       640         62          0         24        520       7547   gyro.o
      1552        138          0         62         48      11294   imu.o
       434         38         22          0        640      15192   io.o
       176         16          0          1         16       1955   led.o
       450         62          0          5          0      62863   main.o
       364         66          0          0          0       5715   maths.o
       120         14          0          0          0     313583   misc.o
      1040         50       2660         16       1024       8435   oled.o
       364         16          0         16         40       5790   pwm_output.o
        72          0          0          0          0       1278   rcc.o
        20          4          0         10          0        907   runtime_config.o
       184         10          0         12          0       3658   rx_pwm.o
        60         10          0          4          0       1645   rxserial3test.o
       760         80          0         36         88       9912   scheduler.o
       290         46          3          8         36       8790   serial.o
       778         12         40          0          0       8849   serial_uart.o
       576         38          0       3472          0       6939   serial_uart_stm32f4xx.o
        88         12          0          8          0       2230   sound_beeper.o
        64         26        392          0       1536        880   startup_stm32f407xx.o
       494         24          0          0          0       6709   stm32f4xx_dma.o
       212          0          0          0          0       2509   stm32f4xx_gpio.o
       328         58          0         16          0       8179   stm32f4xx_rcc.o
       208         24          0          0          0       2654   stm32f4xx_spi.o
      1096         60          0          0          0      16375   stm32f4xx_tim.o
       358          8          0          0          0       6546   stm32f4xx_usart.o
       290         38          0         12         16       6954   system.o
       272         36          0         20          0       2061   system_stm32f4xx.o
         0          0        168          0          0       2271   target.o
       564         68          0          0        465      10013   timer.o
         0          0        112          0          0       2231   timer_stm32f4xx.o
       132          0          0          0          0       6420   ultrasound.o
       400         60          0        144          0      13096   ultrasound_hcsr04.o

    ----------------------------------------------------------------------
     16928       1564       3788       5556       5668     644620   Object Totals
         0          0         32          0          0          0   (incl. Generated)
        36          0          4         14          3          0   (incl. Padding)

    ----------------------------------------------------------------------

      Code (inc. data)   RO Data    RW Data    ZI Data      Debug   Library Member Name

        90          0          0          0          0          0   __dczerorl2.o
         8          0          0          0          0         68   __main.o
       104          0          0          0          0         84   __printf.o
         0          0          0          0          0          0   __rtentry.o
        12          0          0          0          0          0   __rtentry2.o
         6          0          0          0          0          0   __rtentry4.o
        52          8          0          0          0          0   __scatter.o
        28          0          0          0          0          0   __scatter_zi.o
        44          0          0          0          0        108   _printf_char.o
        48          6          0          0          0         96   _printf_char_common.o
        36          4          0          0          0         80   _printf_char_file.o
         6          0          0          0          0          0   _printf_d.o
       120         16          0          0          0         92   _printf_dec.o
       178          0          0          0          0         88   _printf_intcommon.o
         0          0          0          0          0          0   _printf_percent.o
         4          0          0          0          0          0   _printf_percent_end.o
         6          0          0          0          0          0   _printf_s.o
        82          0          0          0          0         80   _printf_str.o
        22          0          0          0          0        100   _rserrno.o
        16          0          0          0          0         68   aeabi_memset.o
        18          0          0          0          0         80   exit.o
         8          0          0          0          0         68   ferror.o
         6          0          0          0          0        152   heapauxi.o
         0          0          0          0          0          0   indicate_semi.o
         2          0          0          0          0          0   libinit.o
         6          0          0          0          0          0   libinit2.o
         2          0          0          0          0          0   libshutdown.o
         2          0          0          0          0          0   libshutdown2.o
         8          4          0          0         96         68   libspace.o
        24          4          0          0          0         84   noretval__2printf.o
         8          4          0          0          0         68   rt_errno_addr_intlibspace.o
        68          0          0          0          0         68   rt_memclr.o
        78          0          0          0          0         80   rt_memclr_w.o
       100          0          0          0          0         80   rt_memcpy_w.o
       122          0          0          0          0         80   rt_memmove_w.o
         2          0          0          0          0          0   rtexit.o
        10          0          0          0          0          0   rtexit2.o
        86          0          0          0          0         76   strncpy.o
        12          4          0          0          0         68   sys_exit.o
        74          0          0          0          0         80   sys_stackheap_outer.o
         2          0          0          0          0         68   use_no_semi.o
        98          4          0          0          0        140   d2f.o
       804         16          0          0          0        368   daddsub_clz.o
        24          0          0          0          0        116   dcmpi.o
       688        140          0          0          0        256   ddiv.o
        94          4          0          0          0        140   dfix.o
        46          0          0          0          0        116   dflt_clz.o
       120          4          0          0          0        140   dleqf.o
       340         12          0          0          0        152   dmul.o
       156          4          0          0          0        140   dnaninf.o
        12          0          0          0          0        116   dretinf.o
       108          0          0          0          0        128   drleqf.o
       180          4          0          0          0        128   drnd.o
        86          4          0          0          0        132   f2d.o
        14          0          0          0          0        116   ffix.o
       140          4          0          0          0        132   fnaninf.o
        10          0          0          0          0        116   fpinit.o
        10          0          0          0          0        116   fretinf.o
        96          4          0          0          0        124   frnd.o
         0          0          0          0          0          0   usenofp.o
       280         46          0          0          0        176   acosf.o
       592         90          0          0          0        184   atan2f.o
       336         56          0          0          0        136   cosf.o
        38          0          0          0          0        116   fpclassifyf.o
        44         12          0          0          0        464   funder.o
        72          0          0          0          0        136   lrintf.o
       224         30          0          0          0        172   round.o
       340         24         32          0          0        160   rredf.o
       400         56          0          0          0        212   sinf.o
       120          0          0          0          0        272   sqrtf.o

    ----------------------------------------------------------------------
      6992        564         32          0         96       6688   Library Totals
        20          0          0          0          0          0   (incl. Padding)

    ----------------------------------------------------------------------

      Code (inc. data)   RO Data    RW Data    ZI Data      Debug   Library Name

      1500         50          0          0         96       1984   c_w.l
      3026        200          0          0          0       2676   fz_wm.l
      2446        314         32          0          0       2028   m_wm.l

    ----------------------------------------------------------------------
      6992        564         32          0         96       6688   Library Totals

    ----------------------------------------------------------------------

==============================================================================


      Code (inc. data)   RO Data    RW Data    ZI Data      Debug   

     23920       2128       3820       5556       5764     621368   Grand Totals
     23920       2128       3820        452       5764     621368   ELF Image Totals (compressed)
     23920       2128       3820        452          0          0   ROM Totals

==============================================================================

    Total RO  Size (Code + RO Data)                27740 (  27.09kB)
    Total RW  Size (RW Data + ZI Data)             11320 (  11.05kB)
    Total ROM Size (Code + RO Data + RW Data)      28192 (  27.53kB)

==============================================================================

